

Microchip MPLAB XC8 Assembler V2.46 build 20240104201356 
                                                                                               Thu Jul 25 19:03:00 2024

Microchip MPLAB XC8 C Compiler v2.46 (Free license) build 20240104201356 Og1 
     1                           	processor	16F877A
     2                           	pagewidth 120
     3                           	opt	flic
     4                           	psect	strings,global,class=STRING,delta=2,noexec
     5                           	psect	cinit,global,class=CODE,merge=1,delta=2
     6                           	psect	cstackCOMMON,global,class=COMMON,space=1,delta=1,noexec
     7                           	psect	cstackBANK0,global,class=BANK0,space=1,delta=1,noexec
     8                           	psect	maintext,global,class=CODE,split=1,delta=2
     9                           	psect	text1,local,class=CODE,merge=1,delta=2
    10                           	psect	text2,local,class=CODE,merge=1,delta=2
    11                           	psect	text3,local,class=CODE,merge=1,delta=2
    12                           	psect	text4,local,class=CODE,merge=1,delta=2
    13                           	psect	text5,local,class=CODE,merge=1,delta=2
    14                           	psect	text6,local,class=CODE,merge=1,delta=2
    15                           	psect	text7,local,class=CODE,merge=1,delta=2
    16                           	psect	text8,local,class=CODE,merge=1,delta=2
    17                           	psect	text9,local,class=CODE,merge=1,delta=2,group=1
    18                           	psect	text10,local,class=CODE,merge=1,delta=2,group=1
    19                           	psect	text11,local,class=CODE,merge=1,delta=2,group=1
    20                           	psect	text12,local,class=CODE,merge=1,delta=2,group=1
    21                           	psect	text13,local,class=CODE,merge=1,delta=2,group=1
    22                           	psect	text14,local,class=CODE,merge=1,delta=2,group=1
    23                           	psect	text15,local,class=CODE,merge=1,delta=2,group=1
    24                           	psect	idloc,global,abs,ovrld,class=IDLOC,space=5,delta=2,noexec
    25                           	psect	config,global,abs,ovrld,class=CONFIG,space=4,delta=2,noexec
    26                           	dabs	1,0x7E,2
    27     0000                     
    28                           ; Version 2.40
    29                           ; Generated 17/11/2021 GMT
    30                           ; 
    31                           ; Copyright © 2021, Microchip Technology Inc. and its subsidiaries ("Microchip")
    32                           ; All rights reserved.
    33                           ; 
    34                           ; This software is developed by Microchip Technology Inc. and its subsidiaries ("Microch
      +                          ip").
    35                           ; 
    36                           ; Redistribution and use in source and binary forms, with or without modification, are
    37                           ; permitted provided that the following conditions are met:
    38                           ; 
    39                           ;     1. Redistributions of source code must retain the above copyright notice, this lis
      +                          t of
    40                           ;        conditions and the following disclaimer.
    41                           ; 
    42                           ;     2. Redistributions in binary form must reproduce the above copyright notice, this 
      +                          list
    43                           ;        of conditions and the following disclaimer in the documentation and/or other
    44                           ;        materials provided with the distribution. Publication is not required when
    45                           ;        this file is used in an embedded application.
    46                           ; 
    47                           ;     3. Microchip's name may not be used to endorse or promote products derived from th
      +                          is
    48                           ;        software without specific prior written permission.
    49                           ; 
    50                           ; THIS SOFTWARE IS PROVIDED BY MICROCHIP "AS IS" AND ANY EXPRESS OR IMPLIED WARRANTIES,
    51                           ; INCLUDING, BUT NOT LIMITED TO, THE IMPLIED WARRANTIES OF MERCHANTABILITY AND FITNESS F
      +                          OR
    52                           ; PURPOSE ARE DISCLAIMED.  IN NO EVENT SHALL MICROCHIP BE LIABLE FOR ANY DIRECT, INDIREC
      +                          T,
    53                           ; INCIDENTAL, SPECIAL, EXEMPLARY, OR CONSEQUENTIAL DAMAGES (INCLUDING BUT NOT LIMITED TO
    54                           ; PROCUREMENT OF SUBSTITUTE GOODS OR SERVICES; LOSS OF USE, DATA OR PROFITS; OR BUSINESS
    55                           ; INTERRUPTION) HOWSOEVER CAUSED AND ON ANY THEORY OF LIABILITY, WHETHER IN CONTRACT, ST
      +                          RICT
    56                           ; LIABILITY, OR TORT (INCLUDING NEGLIGENCE OR OTHERWISE) ARISING IN ANY WAY OUT OF THE U
      +                          SE OF
    57                           ; THIS SOFTWARE, EVEN IF ADVISED OF THE POSSIBILITY OF SUCH DAMAGE.
    58                           ; 
    59                           ; 
    60                           ; Code-generator required, PIC16F877A Definitions
    61                           ; 
    62                           ; SFR Addresses
    63     0000                     	;# 
    64     0001                     	;# 
    65     0002                     	;# 
    66     0003                     	;# 
    67     0004                     	;# 
    68     0005                     	;# 
    69     0006                     	;# 
    70     0007                     	;# 
    71     0008                     	;# 
    72     0009                     	;# 
    73     000A                     	;# 
    74     000B                     	;# 
    75     000C                     	;# 
    76     000D                     	;# 
    77     000E                     	;# 
    78     000E                     	;# 
    79     000F                     	;# 
    80     0010                     	;# 
    81     0011                     	;# 
    82     0012                     	;# 
    83     0013                     	;# 
    84     0014                     	;# 
    85     0015                     	;# 
    86     0015                     	;# 
    87     0016                     	;# 
    88     0017                     	;# 
    89     0018                     	;# 
    90     0019                     	;# 
    91     001A                     	;# 
    92     001B                     	;# 
    93     001B                     	;# 
    94     001C                     	;# 
    95     001D                     	;# 
    96     001E                     	;# 
    97     001F                     	;# 
    98     0081                     	;# 
    99     0085                     	;# 
   100     0086                     	;# 
   101     0087                     	;# 
   102     0088                     	;# 
   103     0089                     	;# 
   104     008C                     	;# 
   105     008D                     	;# 
   106     008E                     	;# 
   107     0091                     	;# 
   108     0092                     	;# 
   109     0093                     	;# 
   110     0094                     	;# 
   111     0098                     	;# 
   112     0099                     	;# 
   113     009C                     	;# 
   114     009D                     	;# 
   115     009E                     	;# 
   116     009F                     	;# 
   117     010C                     	;# 
   118     010D                     	;# 
   119     010E                     	;# 
   120     010F                     	;# 
   121     018C                     	;# 
   122     018D                     	;# 
   123     0000                     	;# 
   124     0001                     	;# 
   125     0002                     	;# 
   126     0003                     	;# 
   127     0004                     	;# 
   128     0005                     	;# 
   129     0006                     	;# 
   130     0007                     	;# 
   131     0008                     	;# 
   132     0009                     	;# 
   133     000A                     	;# 
   134     000B                     	;# 
   135     000C                     	;# 
   136     000D                     	;# 
   137     000E                     	;# 
   138     000E                     	;# 
   139     000F                     	;# 
   140     0010                     	;# 
   141     0011                     	;# 
   142     0012                     	;# 
   143     0013                     	;# 
   144     0014                     	;# 
   145     0015                     	;# 
   146     0015                     	;# 
   147     0016                     	;# 
   148     0017                     	;# 
   149     0018                     	;# 
   150     0019                     	;# 
   151     001A                     	;# 
   152     001B                     	;# 
   153     001B                     	;# 
   154     001C                     	;# 
   155     001D                     	;# 
   156     001E                     	;# 
   157     001F                     	;# 
   158     0081                     	;# 
   159     0085                     	;# 
   160     0086                     	;# 
   161     0087                     	;# 
   162     0088                     	;# 
   163     0089                     	;# 
   164     008C                     	;# 
   165     008D                     	;# 
   166     008E                     	;# 
   167     0091                     	;# 
   168     0092                     	;# 
   169     0093                     	;# 
   170     0094                     	;# 
   171     0098                     	;# 
   172     0099                     	;# 
   173     009C                     	;# 
   174     009D                     	;# 
   175     009E                     	;# 
   176     009F                     	;# 
   177     010C                     	;# 
   178     010D                     	;# 
   179     010E                     	;# 
   180     010F                     	;# 
   181     018C                     	;# 
   182     018D                     	;# 
   183     0000                     	;# 
   184     0001                     	;# 
   185     0002                     	;# 
   186     0003                     	;# 
   187     0004                     	;# 
   188     0005                     	;# 
   189     0006                     	;# 
   190     0007                     	;# 
   191     0008                     	;# 
   192     0009                     	;# 
   193     000A                     	;# 
   194     000B                     	;# 
   195     000C                     	;# 
   196     000D                     	;# 
   197     000E                     	;# 
   198     000E                     	;# 
   199     000F                     	;# 
   200     0010                     	;# 
   201     0011                     	;# 
   202     0012                     	;# 
   203     0013                     	;# 
   204     0014                     	;# 
   205     0015                     	;# 
   206     0015                     	;# 
   207     0016                     	;# 
   208     0017                     	;# 
   209     0018                     	;# 
   210     0019                     	;# 
   211     001A                     	;# 
   212     001B                     	;# 
   213     001B                     	;# 
   214     001C                     	;# 
   215     001D                     	;# 
   216     001E                     	;# 
   217     001F                     	;# 
   218     0081                     	;# 
   219     0085                     	;# 
   220     0086                     	;# 
   221     0087                     	;# 
   222     0088                     	;# 
   223     0089                     	;# 
   224     008C                     	;# 
   225     008D                     	;# 
   226     008E                     	;# 
   227     0091                     	;# 
   228     0092                     	;# 
   229     0093                     	;# 
   230     0094                     	;# 
   231     0098                     	;# 
   232     0099                     	;# 
   233     009C                     	;# 
   234     009D                     	;# 
   235     009E                     	;# 
   236     009F                     	;# 
   237     010C                     	;# 
   238     010D                     	;# 
   239     010E                     	;# 
   240     010F                     	;# 
   241     018C                     	;# 
   242     018D                     	;# 
   243     0000                     	;# 
   244     0001                     	;# 
   245     0002                     	;# 
   246     0003                     	;# 
   247     0004                     	;# 
   248     0005                     	;# 
   249     0006                     	;# 
   250     0007                     	;# 
   251     0008                     	;# 
   252     0009                     	;# 
   253     000A                     	;# 
   254     000B                     	;# 
   255     000C                     	;# 
   256     000D                     	;# 
   257     000E                     	;# 
   258     000E                     	;# 
   259     000F                     	;# 
   260     0010                     	;# 
   261     0011                     	;# 
   262     0012                     	;# 
   263     0013                     	;# 
   264     0014                     	;# 
   265     0015                     	;# 
   266     0015                     	;# 
   267     0016                     	;# 
   268     0017                     	;# 
   269     0018                     	;# 
   270     0019                     	;# 
   271     001A                     	;# 
   272     001B                     	;# 
   273     001B                     	;# 
   274     001C                     	;# 
   275     001D                     	;# 
   276     001E                     	;# 
   277     001F                     	;# 
   278     0081                     	;# 
   279     0085                     	;# 
   280     0086                     	;# 
   281     0087                     	;# 
   282     0088                     	;# 
   283     0089                     	;# 
   284     008C                     	;# 
   285     008D                     	;# 
   286     008E                     	;# 
   287     0091                     	;# 
   288     0092                     	;# 
   289     0093                     	;# 
   290     0094                     	;# 
   291     0098                     	;# 
   292     0099                     	;# 
   293     009C                     	;# 
   294     009D                     	;# 
   295     009E                     	;# 
   296     009F                     	;# 
   297     010C                     	;# 
   298     010D                     	;# 
   299     010E                     	;# 
   300     010F                     	;# 
   301     018C                     	;# 
   302     018D                     	;# 
   303     0008                     _PORTD	set	8
   304     001E                     _ADRESH	set	30
   305     0049                     _RE1	set	73
   306     004A                     _RE2	set	74
   307     00FA                     _nDONE	set	250
   308     00FA                     _GO	set	250
   309     00F8                     _ADON	set	248
   310     0088                     _TRISD	set	136
   311     009E                     _ADRESL	set	158
   312     0449                     _TRISE1	set	1097
   313     044A                     _TRISE2	set	1098
   314     04FF                     _ADFM	set	1279
   315                           
   316                           	psect	strings
   317     0800                     __pstrings:
   318     0800                     stringtab:
   319     0800                     __stringtab:
   320     0800                     stringcode:	
   321                           ;	String table - string pointers are 1 byte each
   322                           
   323     0800                     stringdir:
   324     0800  3008               	movlw	high stringdir
   325     0801  008A               	movwf	10
   326     0802  0804               	movf	4,w
   327     0803  0A84               	incf	4,f
   328     0804  0782               	addwf	2,f
   329     0805                     __stringbase:
   330     0805  3400               	retlw	0
   331     0806                     __end_of__stringtab:
   332     0806                     STR_1:
   333     0806  3444               	retlw	68	;'D'
   334     0807  3469               	retlw	105	;'i'
   335     0808  3467               	retlw	103	;'g'
   336     0809  3469               	retlw	105	;'i'
   337     080A  3474               	retlw	116	;'t'
   338     080B  3461               	retlw	97	;'a'
   339     080C  346C               	retlw	108	;'l'
   340     080D  3420               	retlw	32	;' '
   341     080E  3456               	retlw	86	;'V'
   342     080F  346F               	retlw	111	;'o'
   343     0810  346C               	retlw	108	;'l'
   344     0811  3474               	retlw	116	;'t'
   345     0812  346D               	retlw	109	;'m'
   346     0813  3465               	retlw	101	;'e'
   347     0814  3474               	retlw	116	;'t'
   348     0815  3465               	retlw	101	;'e'
   349     0816  3472               	retlw	114	;'r'
   350     0817  3400               	retlw	0
   351     0818                     STR_2:
   352     0818  3456               	retlw	86	;'V'
   353     0819  346F               	retlw	111	;'o'
   354     081A  346C               	retlw	108	;'l'
   355     081B  3474               	retlw	116	;'t'
   356     081C  3461               	retlw	97	;'a'
   357     081D  3467               	retlw	103	;'g'
   358     081E  3465               	retlw	101	;'e'
   359     081F  3420               	retlw	32	;' '
   360     0820  343D               	retlw	61	;'='
   361     0821  3420               	retlw	32	;' '
   362     0822  3400               	retlw	0
   363     0823                     STR_3:
   364     0823  3456               	retlw	86	;'V'
   365     0824  346F               	retlw	111	;'o'
   366     0825  346C               	retlw	108	;'l'
   367     0826  3474               	retlw	116	;'t'
   368     0827  3473               	retlw	115	;'s'
   369     0828  3400               	retlw	0
   370                           
   371                           	psect	cinit
   372     07FC                     start_initialization:	
   373                           ; #config settings
   374                           
   375     07FC                     __initialization:
   376     07FC                     end_of_initialization:	
   377                           ;End of C runtime variable initialization code
   378                           
   379     07FC                     __end_of__initialization:
   380     07FC  0183               	clrf	3
   381     07FD  120A  118A  2A1E   	ljmp	_main	;jump to C main() function
   382                           
   383                           	psect	cstackCOMMON
   384     0070                     __pcstackCOMMON:
   385     0070                     ?_init_adc:
   386     0070                     ??_init_adc:	
   387                           ; 1 bytes @ 0x0
   388                           
   389     0070                     ?_clcd_write:	
   390                           ; 1 bytes @ 0x0
   391                           
   392     0070                     ?_init_display_controller:	
   393                           ; 1 bytes @ 0x0
   394                           
   395     0070                     ?_init_clcd:	
   396                           ; 1 bytes @ 0x0
   397                           
   398     0070                     ?_init_config:	
   399                           ; 1 bytes @ 0x0
   400                           
   401     0070                     ?_main:	
   402                           ; 1 bytes @ 0x0
   403                           
   404     0070                     ?__Umul8_16:	
   405                           ; 1 bytes @ 0x0
   406                           
   407     0070                     ?_read_adc:	
   408                           ; 2 bytes @ 0x0
   409                           
   410     0070                     ?___lwdiv:	
   411                           ; 2 bytes @ 0x0
   412                           
   413     0070                     ?___lwmod:	
   414                           ; 2 bytes @ 0x0
   415                           
   416     0070                     ?___xxtofl:	
   417                           ; 2 bytes @ 0x0
   418                           
   419     0070                     clcd_write@mode:	
   420                           ; 4 bytes @ 0x0
   421                           
   422     0070                     __Umul8_16@multiplicand:	
   423                           ; 1 bytes @ 0x0
   424                           
   425     0070                     ___lwdiv@divisor:	
   426                           ; 1 bytes @ 0x0
   427                           
   428     0070                     ___lwmod@divisor:	
   429                           ; 2 bytes @ 0x0
   430                           
   431     0070                     ___xxtofl@val:	
   432                           ; 2 bytes @ 0x0
   433                           
   434                           
   435                           ; 4 bytes @ 0x0
   436     0070                     	ds	1
   437     0071                     ??_clcd_write:
   438                           
   439                           ; 1 bytes @ 0x1
   440     0071                     	ds	1
   441     0072                     ??__Umul8_16:
   442     0072                     ??_read_adc:	
   443                           ; 1 bytes @ 0x2
   444                           
   445     0072                     read_adc@adc_reg_val:	
   446                           ; 1 bytes @ 0x2
   447                           
   448     0072                     ___lwdiv@dividend:	
   449                           ; 2 bytes @ 0x2
   450                           
   451     0072                     ___lwmod@dividend:	
   452                           ; 2 bytes @ 0x2
   453                           
   454                           
   455                           ; 2 bytes @ 0x2
   456     0072                     	ds	1
   457     0073                     clcd_write@byte:
   458                           
   459                           ; 1 bytes @ 0x3
   460     0073                     	ds	1
   461     0074                     ??_init_display_controller:
   462     0074                     ?_clcd_print:	
   463                           ; 1 bytes @ 0x4
   464                           
   465     0074                     ??___lwdiv:	
   466                           ; 1 bytes @ 0x4
   467                           
   468     0074                     ??___lwmod:	
   469                           ; 1 bytes @ 0x4
   470                           
   471     0074                     ??___xxtofl:	
   472                           ; 1 bytes @ 0x4
   473                           
   474     0074                     clcd_print@addr:	
   475                           ; 1 bytes @ 0x4
   476                           
   477     0074                     ___lwmod@counter:	
   478                           ; 1 bytes @ 0x4
   479                           
   480     0074                     ___lwdiv@quotient:	
   481                           ; 1 bytes @ 0x4
   482                           
   483     0074                     __Umul8_16@product:	
   484                           ; 2 bytes @ 0x4
   485                           
   486                           
   487                           ; 2 bytes @ 0x4
   488     0074                     	ds	1
   489     0075                     ??_clcd_print:
   490     0075                     clcd_print@str:	
   491                           ; 1 bytes @ 0x5
   492                           
   493                           
   494                           ; 1 bytes @ 0x5
   495     0075                     	ds	1
   496     0076                     ??_init_clcd:
   497     0076                     ??_init_config:	
   498                           ; 1 bytes @ 0x6
   499                           
   500     0076                     ___lwdiv@counter:	
   501                           ; 1 bytes @ 0x6
   502                           
   503     0076                     __Umul8_16@word_mpld:	
   504                           ; 1 bytes @ 0x6
   505                           
   506                           
   507                           ; 2 bytes @ 0x6
   508     0076                     	ds	1
   509     0077                     ?_clcd_putch:
   510     0077                     clcd_putch@addr:	
   511                           ; 1 bytes @ 0x7
   512                           
   513                           
   514                           ; 1 bytes @ 0x7
   515     0077                     	ds	1
   516     0078                     ??_clcd_putch:
   517     0078                     clcd_putch@data:	
   518                           ; 1 bytes @ 0x8
   519                           
   520     0078                     __Umul8_16@multiplier:	
   521                           ; 1 bytes @ 0x8
   522                           
   523     0078                     ___xxtofl@sign:	
   524                           ; 1 bytes @ 0x8
   525                           
   526                           
   527                           ; 1 bytes @ 0x8
   528     0078                     	ds	1
   529     0079                     ___xxtofl@exp:
   530                           
   531                           ; 1 bytes @ 0x9
   532     0079                     	ds	1
   533     007A                     ___xxtofl@arg:
   534                           
   535                           ; 4 bytes @ 0xA
   536     007A                     	ds	4
   537     007E                     ??_main:
   538                           
   539                           	psect	cstackBANK0
   540     0020                     __pcstackBANK0:	
   541                           ; 1 bytes @ 0xE
   542                           
   543     0020                     ?___fldiv:
   544     0020                     ___fldiv@a:	
   545                           ; 4 bytes @ 0x0
   546                           
   547                           
   548                           ; 4 bytes @ 0x0
   549     0020                     	ds	4
   550     0024                     ___fldiv@b:
   551                           
   552                           ; 4 bytes @ 0x4
   553     0024                     	ds	4
   554     0028                     ??___fldiv:
   555                           
   556                           ; 1 bytes @ 0x8
   557     0028                     	ds	5
   558     002D                     ___fldiv@rem:
   559                           
   560                           ; 4 bytes @ 0xD
   561     002D                     	ds	4
   562     0031                     ___fldiv@sign:
   563                           
   564                           ; 1 bytes @ 0x11
   565     0031                     	ds	1
   566     0032                     ___fldiv@new_exp:
   567                           
   568                           ; 2 bytes @ 0x12
   569     0032                     	ds	2
   570     0034                     ___fldiv@grs:
   571                           
   572                           ; 4 bytes @ 0x14
   573     0034                     	ds	4
   574     0038                     ___fldiv@bexp:
   575                           
   576                           ; 1 bytes @ 0x18
   577     0038                     	ds	1
   578     0039                     ___fldiv@aexp:
   579                           
   580                           ; 1 bytes @ 0x19
   581     0039                     	ds	1
   582     003A                     ?___flmul:
   583     003A                     ___flmul@b:	
   584                           ; 4 bytes @ 0x1A
   585                           
   586                           
   587                           ; 4 bytes @ 0x1A
   588     003A                     	ds	4
   589     003E                     ___flmul@a:
   590                           
   591                           ; 4 bytes @ 0x1E
   592     003E                     	ds	4
   593     0042                     ??___flmul:
   594                           
   595                           ; 1 bytes @ 0x22
   596     0042                     	ds	5
   597     0047                     ___flmul@sign:
   598                           
   599                           ; 1 bytes @ 0x27
   600     0047                     	ds	1
   601     0048                     ___flmul@grs:
   602                           
   603                           ; 4 bytes @ 0x28
   604     0048                     	ds	4
   605     004C                     ___flmul@aexp:
   606                           
   607                           ; 1 bytes @ 0x2C
   608     004C                     	ds	1
   609     004D                     ___flmul@bexp:
   610                           
   611                           ; 1 bytes @ 0x2D
   612     004D                     	ds	1
   613     004E                     ___flmul@prod:
   614                           
   615                           ; 4 bytes @ 0x2E
   616     004E                     	ds	4
   617     0052                     ___flmul@temp:
   618                           
   619                           ; 2 bytes @ 0x32
   620     0052                     	ds	2
   621     0054                     ?___fltol:
   622     0054                     ___fltol@f1:	
   623                           ; 4 bytes @ 0x34
   624                           
   625                           
   626                           ; 4 bytes @ 0x34
   627     0054                     	ds	4
   628     0058                     ??___fltol:
   629                           
   630                           ; 1 bytes @ 0x38
   631     0058                     	ds	4
   632     005C                     ___fltol@sign1:
   633                           
   634                           ; 1 bytes @ 0x3C
   635     005C                     	ds	1
   636     005D                     ___fltol@exp1:
   637                           
   638                           ; 1 bytes @ 0x3D
   639     005D                     	ds	1
   640     005E                     _main$693:
   641                           
   642                           ; 4 bytes @ 0x3E
   643     005E                     	ds	4
   644     0062                     main@voltage:
   645                           
   646                           ; 2 bytes @ 0x42
   647     0062                     	ds	2
   648                           
   649                           	psect	maintext
   650     021E                     __pmaintext:	
   651 ;;
   652 ;;Main: autosize = 0, tempsize = 0, incstack = 0, save=0
   653 ;;
   654 ;; *************** function _main *****************
   655 ;; Defined at:
   656 ;;		line 25 in file "main.c"
   657 ;; Parameters:    Size  Location     Type
   658 ;;		None
   659 ;; Auto vars:     Size  Location     Type
   660 ;;  voltage         2   66[BANK0 ] unsigned short 
   661 ;; Return value:  Size  Location     Type
   662 ;;                  1    wreg      void 
   663 ;; Registers used:
   664 ;;		wreg, fsr0l, fsr0h, status,2, status,0, btemp+1, pclath, cstack
   665 ;; Tracked objects:
   666 ;;		On entry : B00/0
   667 ;;		On exit  : 0/0
   668 ;;		Unchanged: 0/0
   669 ;; Data sizes:     COMMON   BANK0   BANK1   BANK3   BANK2
   670 ;;      Params:         0       0       0       0       0
   671 ;;      Locals:         0       6       0       0       0
   672 ;;      Temps:          0       0       0       0       0
   673 ;;      Totals:         0       6       0       0       0
   674 ;;Total ram usage:        6 bytes
   675 ;; Hardware stack levels required when called: 4
   676 ;; This function calls:
   677 ;;		___fldiv
   678 ;;		___flmul
   679 ;;		___fltol
   680 ;;		___lwdiv
   681 ;;		___lwmod
   682 ;;		___xxtofl
   683 ;;		_clcd_print
   684 ;;		_clcd_putch
   685 ;;		_init_config
   686 ;;		_read_adc
   687 ;; This function is called by:
   688 ;;		Startup code after reset
   689 ;; This function uses a non-reentrant model
   690 ;;
   691                           
   692     021E                     _main:	
   693                           ;psect for function _main
   694                           
   695     021E                     l1624:	
   696                           ;incstack = 0
   697                           ; Regs used in _main: [wreg-fsr0h+status,2+status,0+btemp+1+pclath+cstack]
   698                           
   699                           
   700                           ;main.c: 27: ;main.c: 28: 
   701     021E  120A  158A  2775  120A  118A  	fcall	_init_config
   702     0223                     l1626:
   703                           
   704                           ;main.c: 30:     return;
   705     0223  3080               	movlw	128
   706     0224  00F4               	movwf	clcd_print@addr
   707     0225  3001               	movlw	(low ((STR_1-__stringbase)| (0+32768)))& (0+255)
   708     0226  120A  158A  27D8  120A  118A  	fcall	_clcd_print
   709     022B                     l1628:
   710     022B  120A  118A  2007  120A  118A  	fcall	_read_adc
   711     0230  0871               	movf	?_read_adc+1,w
   712     0231  1283               	bcf	3,5	;RP0=0, select bank0
   713     0232  1303               	bcf	3,6	;RP1=0, select bank0
   714     0233  00E3               	movwf	main@voltage+1
   715     0234  0870               	movf	?_read_adc,w
   716     0235  00E2               	movwf	main@voltage
   717     0236                     l1630:
   718     0236  0862               	movf	main@voltage,w
   719     0237  00F0               	movwf	___xxtofl@val
   720     0238  0863               	movf	main@voltage+1,w
   721     0239  00F1               	movwf	___xxtofl@val+1
   722     023A  01F2               	clrf	___xxtofl@val+2
   723     023B  01F3               	clrf	___xxtofl@val+3
   724     023C  3000               	movlw	0
   725     023D  120A  118A  2166  120A  118A  	fcall	___xxtofl
   726     0242  0873               	movf	?___xxtofl+3,w
   727     0243  1283               	bcf	3,5	;RP0=0, select bank0
   728     0244  1303               	bcf	3,6	;RP1=0, select bank0
   729     0245  00A7               	movwf	___fldiv@b+3
   730     0246  0872               	movf	?___xxtofl+2,w
   731     0247  00A6               	movwf	___fldiv@b+2
   732     0248  0871               	movf	?___xxtofl+1,w
   733     0249  00A5               	movwf	___fldiv@b+1
   734     024A  0870               	movf	?___xxtofl,w
   735     024B  00A4               	movwf	___fldiv@b
   736     024C  3044               	movlw	68
   737     024D  00A3               	movwf	___fldiv@a+3
   738     024E  307A               	movlw	122
   739     024F  00A2               	movwf	___fldiv@a+2
   740     0250  3000               	movlw	0
   741     0251  00A1               	movwf	___fldiv@a+1
   742     0252  3000               	movlw	0
   743     0253  00A0               	movwf	___fldiv@a
   744     0254  120A  118A  22E8  120A  118A  	fcall	___fldiv
   745     0259  1283               	bcf	3,5	;RP0=0, select bank0
   746     025A  1303               	bcf	3,6	;RP1=0, select bank0
   747     025B  0823               	movf	?___fldiv+3,w
   748     025C  00C1               	movwf	___flmul@a+3
   749     025D  0822               	movf	?___fldiv+2,w
   750     025E  00C0               	movwf	___flmul@a+2
   751     025F  0821               	movf	?___fldiv+1,w
   752     0260  00BF               	movwf	___flmul@a+1
   753     0261  0820               	movf	?___fldiv,w
   754     0262  00BE               	movwf	___flmul@a
   755     0263  3040               	movlw	64
   756     0264  00BD               	movwf	___flmul@b+3
   757     0265  309C               	movlw	156
   758     0266  00BC               	movwf	___flmul@b+2
   759     0267  3028               	movlw	40
   760     0268  00BB               	movwf	___flmul@b+1
   761     0269  30F6               	movlw	246
   762     026A  00BA               	movwf	___flmul@b
   763     026B  120A  118A  24B7  120A  118A  	fcall	___flmul
   764     0270  1283               	bcf	3,5	;RP0=0, select bank0
   765     0271  1303               	bcf	3,6	;RP1=0, select bank0
   766     0272  083D               	movf	?___flmul+3,w
   767     0273  00E1               	movwf	_main$693+3
   768     0274  083C               	movf	?___flmul+2,w
   769     0275  00E0               	movwf	_main$693+2
   770     0276  083B               	movf	?___flmul+1,w
   771     0277  00DF               	movwf	_main$693+1
   772     0278  083A               	movf	?___flmul,w
   773     0279  00DE               	movwf	_main$693
   774     027A                     l1632:
   775     027A  0861               	movf	_main$693+3,w
   776     027B  00C1               	movwf	___flmul@a+3
   777     027C  0860               	movf	_main$693+2,w
   778     027D  00C0               	movwf	___flmul@a+2
   779     027E  085F               	movf	_main$693+1,w
   780     027F  00BF               	movwf	___flmul@a+1
   781     0280  085E               	movf	_main$693,w
   782     0281  00BE               	movwf	___flmul@a
   783     0282  3041               	movlw	65
   784     0283  00BD               	movwf	___flmul@b+3
   785     0284  30A0               	movlw	160
   786     0285  00BC               	movwf	___flmul@b+2
   787     0286  3000               	movlw	0
   788     0287  00BB               	movwf	___flmul@b+1
   789     0288  3000               	movlw	0
   790     0289  00BA               	movwf	___flmul@b
   791     028A  120A  118A  24B7  120A  118A  	fcall	___flmul
   792     028F  1283               	bcf	3,5	;RP0=0, select bank0
   793     0290  1303               	bcf	3,6	;RP1=0, select bank0
   794     0291  083D               	movf	?___flmul+3,w
   795     0292  00D7               	movwf	___fltol@f1+3
   796     0293  083C               	movf	?___flmul+2,w
   797     0294  00D6               	movwf	___fltol@f1+2
   798     0295  083B               	movf	?___flmul+1,w
   799     0296  00D5               	movwf	___fltol@f1+1
   800     0297  083A               	movf	?___flmul,w
   801     0298  00D4               	movwf	___fltol@f1
   802     0299  120A  118A  20EE  120A  118A  	fcall	___fltol
   803     029E  1283               	bcf	3,5	;RP0=0, select bank0
   804     029F  1303               	bcf	3,6	;RP1=0, select bank0
   805     02A0  0855               	movf	?___fltol+1,w
   806     02A1  00E3               	movwf	main@voltage+1
   807     02A2  0854               	movf	?___fltol,w
   808     02A3  00E2               	movwf	main@voltage
   809     02A4                     l1634:
   810     02A4  30C0               	movlw	192
   811     02A5  00F4               	movwf	clcd_print@addr
   812     02A6  3013               	movlw	(low ((STR_2-__stringbase)| (0+32768)))& (0+255)
   813     02A7  120A  158A  27D8  120A  118A  	fcall	_clcd_print
   814     02AC                     l1636:
   815     02AC  30CC               	movlw	204
   816     02AD  00F4               	movwf	clcd_print@addr
   817     02AE  301E               	movlw	(low ((STR_3-__stringbase)| (0+32768)))& (0+255)
   818     02AF  120A  158A  27D8  120A  118A  	fcall	_clcd_print
   819     02B4                     l1638:
   820     02B4  30CA               	movlw	202
   821     02B5  00F7               	movwf	clcd_putch@addr
   822     02B6  300A               	movlw	10
   823     02B7  00F0               	movwf	___lwdiv@divisor
   824     02B8  3000               	movlw	0
   825     02B9  00F1               	movwf	___lwdiv@divisor+1
   826     02BA  1283               	bcf	3,5	;RP0=0, select bank0
   827     02BB  1303               	bcf	3,6	;RP1=0, select bank0
   828     02BC  0863               	movf	main@voltage+1,w
   829     02BD  00F3               	movwf	___lwdiv@dividend+1
   830     02BE  0862               	movf	main@voltage,w
   831     02BF  00F2               	movwf	___lwdiv@dividend
   832     02C0  120A  118A  2053  120A  118A  	fcall	___lwdiv
   833     02C5  0870               	movf	?___lwdiv,w
   834     02C6  3E30               	addlw	48
   835     02C7  120A  158A  2780  120A  118A  	fcall	_clcd_putch
   836     02CC                     l1640:
   837     02CC  30CB               	movlw	203
   838     02CD  00F7               	movwf	clcd_putch@addr
   839     02CE  300A               	movlw	10
   840     02CF  00F0               	movwf	___lwmod@divisor
   841     02D0  3000               	movlw	0
   842     02D1  00F1               	movwf	___lwmod@divisor+1
   843     02D2  1283               	bcf	3,5	;RP0=0, select bank0
   844     02D3  1303               	bcf	3,6	;RP1=0, select bank0
   845     02D4  0863               	movf	main@voltage+1,w
   846     02D5  00F3               	movwf	___lwmod@dividend+1
   847     02D6  0862               	movf	main@voltage,w
   848     02D7  00F2               	movwf	___lwmod@dividend
   849     02D8  120A  118A  2019  120A  118A  	fcall	___lwmod
   850     02DD  0870               	movf	?___lwmod,w
   851     02DE  3E30               	addlw	48
   852     02DF  120A  158A  2780  120A  118A  	fcall	_clcd_putch
   853     02E4  2A2B               	goto	l1628
   854     02E5  120A  118A  2800   	ljmp	start
   855     02E8                     __end_of_main:
   856                           
   857                           	psect	text1
   858     0007                     __ptext1:	
   859 ;; *************** function _read_adc *****************
   860 ;; Defined at:
   861 ;;		line 12 in file "adc.c"
   862 ;; Parameters:    Size  Location     Type
   863 ;;		None
   864 ;; Auto vars:     Size  Location     Type
   865 ;;  adc_reg_val     2    2[COMMON] unsigned short 
   866 ;; Return value:  Size  Location     Type
   867 ;;                  2    0[COMMON] unsigned short 
   868 ;; Registers used:
   869 ;;		wreg
   870 ;; Tracked objects:
   871 ;;		On entry : 0/0
   872 ;;		On exit  : 0/0
   873 ;;		Unchanged: 0/0
   874 ;; Data sizes:     COMMON   BANK0   BANK1   BANK3   BANK2
   875 ;;      Params:         2       0       0       0       0
   876 ;;      Locals:         2       0       0       0       0
   877 ;;      Temps:          0       0       0       0       0
   878 ;;      Totals:         4       0       0       0       0
   879 ;;Total ram usage:        4 bytes
   880 ;; Hardware stack levels used: 1
   881 ;; This function calls:
   882 ;;		Nothing
   883 ;; This function is called by:
   884 ;;		_main
   885 ;; This function uses a non-reentrant model
   886 ;;
   887                           
   888     0007                     _read_adc:	
   889                           ;psect for function _read_adc
   890                           
   891     0007                     l1182:	
   892                           ;incstack = 0
   893                           ; Regs used in _read_adc: [wreg]
   894                           
   895                           
   896                           ;adc.c: 14:     unsigned short adc_reg_val;;adc.c: 17:     GO = 1;
   897     0007  1283               	bcf	3,5	;RP0=0, select bank0
   898     0008  1303               	bcf	3,6	;RP1=0, select bank0
   899     0009  151F               	bsf	31,2	;volatile
   900     000A                     l18:	
   901                           ;adc.c: 20:     while (nDONE);
   902                           
   903     000A  191F               	btfsc	31,2	;volatile
   904     000B  280D               	goto	u1161
   905     000C  280E               	goto	u1160
   906     000D                     u1161:
   907     000D  280A               	goto	l18
   908     000E                     u1160:
   909     000E                     l1184:
   910                           
   911                           ;adc.c: 23:     adc_reg_val = (ADRESH << 8) | ADRESL;
   912     000E  081E               	movf	30,w	;volatile
   913     000F  00F3               	movwf	read_adc@adc_reg_val+1
   914     0010  1683               	bsf	3,5	;RP0=1, select bank1
   915     0011  1303               	bcf	3,6	;RP1=0, select bank1
   916     0012  081E               	movf	30,w	;volatile
   917     0013  00F2               	movwf	read_adc@adc_reg_val
   918                           
   919                           ;adc.c: 25:     return adc_reg_val;
   920     0014  0873               	movf	read_adc@adc_reg_val+1,w
   921     0015  00F1               	movwf	?_read_adc+1
   922     0016  0872               	movf	read_adc@adc_reg_val,w
   923     0017  00F0               	movwf	?_read_adc
   924     0018                     l21:
   925     0018  0008               	return
   926     0019                     __end_of_read_adc:
   927                           
   928                           	psect	text2
   929     0F75                     __ptext2:	
   930 ;; *************** function _init_config *****************
   931 ;; Defined at:
   932 ;;		line 18 in file "main.c"
   933 ;; Parameters:    Size  Location     Type
   934 ;;		None
   935 ;; Auto vars:     Size  Location     Type
   936 ;;		None
   937 ;; Return value:  Size  Location     Type
   938 ;;                  1    wreg      void 
   939 ;; Registers used:
   940 ;;		wreg, status,2, status,0, pclath, cstack
   941 ;; Tracked objects:
   942 ;;		On entry : 0/0
   943 ;;		On exit  : 0/0
   944 ;;		Unchanged: 0/0
   945 ;; Data sizes:     COMMON   BANK0   BANK1   BANK3   BANK2
   946 ;;      Params:         0       0       0       0       0
   947 ;;      Locals:         0       0       0       0       0
   948 ;;      Temps:          0       0       0       0       0
   949 ;;      Totals:         0       0       0       0       0
   950 ;;Total ram usage:        0 bytes
   951 ;; Hardware stack levels used: 1
   952 ;; Hardware stack levels required when called: 3
   953 ;; This function calls:
   954 ;;		_init_adc
   955 ;;		_init_clcd
   956 ;; This function is called by:
   957 ;;		_main
   958 ;; This function uses a non-reentrant model
   959 ;;
   960                           
   961     0F75                     _init_config:	
   962                           ;psect for function _init_config
   963                           
   964     0F75                     l1198:	
   965                           ;incstack = 0
   966                           ; Regs used in _init_config: [wreg+status,2+status,0+pclath+cstack]
   967                           
   968                           
   969                           ;main.c: 20: 
   970     0F75  120A  158A  2763  120A  158A  	fcall	_init_adc
   971     0F7A                     l1200:
   972                           
   973                           ;main.c: 22: 
   974     0F7A  120A  158A  276A  120A  158A  	fcall	_init_clcd
   975     0F7F                     l66:
   976     0F7F  0008               	return
   977     0F80                     __end_of_init_config:
   978                           
   979                           	psect	text3
   980     0F6A                     __ptext3:	
   981 ;; *************** function _init_clcd *****************
   982 ;; Defined at:
   983 ;;		line 39 in file "clcd.c"
   984 ;; Parameters:    Size  Location     Type
   985 ;;		None
   986 ;; Auto vars:     Size  Location     Type
   987 ;;		None
   988 ;; Return value:  Size  Location     Type
   989 ;;                  1    wreg      void 
   990 ;; Registers used:
   991 ;;		wreg, status,2, status,0, pclath, cstack
   992 ;; Tracked objects:
   993 ;;		On entry : 0/0
   994 ;;		On exit  : 0/0
   995 ;;		Unchanged: 0/0
   996 ;; Data sizes:     COMMON   BANK0   BANK1   BANK3   BANK2
   997 ;;      Params:         0       0       0       0       0
   998 ;;      Locals:         0       0       0       0       0
   999 ;;      Temps:          0       0       0       0       0
  1000 ;;      Totals:         0       0       0       0       0
  1001 ;;Total ram usage:        0 bytes
  1002 ;; Hardware stack levels used: 1
  1003 ;; Hardware stack levels required when called: 2
  1004 ;; This function calls:
  1005 ;;		_init_display_controller
  1006 ;; This function is called by:
  1007 ;;		_init_config
  1008 ;; This function uses a non-reentrant model
  1009 ;;
  1010                           
  1011     0F6A                     _init_clcd:	
  1012                           ;psect for function _init_clcd
  1013                           
  1014     0F6A                     l1160:	
  1015                           ;incstack = 0
  1016                           ; Regs used in _init_clcd: [wreg+status,2+status,0+pclath+cstack]
  1017                           
  1018                           
  1019                           ;clcd.c: 42:     TRISD = 0x00;
  1020     0F6A  1683               	bsf	3,5	;RP0=1, select bank1
  1021     0F6B  1303               	bcf	3,6	;RP1=0, select bank1
  1022     0F6C  0188               	clrf	8	;volatile
  1023     0F6D                     l1162:
  1024                           
  1025                           ;clcd.c: 45:     TRISE2 = 0;
  1026     0F6D  1109               	bcf	9,2	;volatile
  1027     0F6E                     l1164:
  1028                           
  1029                           ;clcd.c: 46:     TRISE1 = 0;
  1030     0F6E  1089               	bcf	9,1	;volatile
  1031     0F6F                     l1166:
  1032                           
  1033                           ;clcd.c: 48:     init_display_controller();
  1034     0F6F  120A  118A  2097  120A  158A  	fcall	_init_display_controller
  1035     0F74                     l44:
  1036     0F74  0008               	return
  1037     0F75                     __end_of_init_clcd:
  1038                           
  1039                           	psect	text4
  1040     0097                     __ptext4:	
  1041 ;; *************** function _init_display_controller *****************
  1042 ;; Defined at:
  1043 ;;		line 18 in file "clcd.c"
  1044 ;; Parameters:    Size  Location     Type
  1045 ;;		None
  1046 ;; Auto vars:     Size  Location     Type
  1047 ;;		None
  1048 ;; Return value:  Size  Location     Type
  1049 ;;                  1    wreg      void 
  1050 ;; Registers used:
  1051 ;;		wreg, status,2, status,0, pclath, cstack
  1052 ;; Tracked objects:
  1053 ;;		On entry : 0/0
  1054 ;;		On exit  : 0/0
  1055 ;;		Unchanged: 0/0
  1056 ;; Data sizes:     COMMON   BANK0   BANK1   BANK3   BANK2
  1057 ;;      Params:         0       0       0       0       0
  1058 ;;      Locals:         0       0       0       0       0
  1059 ;;      Temps:          2       0       0       0       0
  1060 ;;      Totals:         2       0       0       0       0
  1061 ;;Total ram usage:        2 bytes
  1062 ;; Hardware stack levels used: 1
  1063 ;; Hardware stack levels required when called: 1
  1064 ;; This function calls:
  1065 ;;		_clcd_write
  1066 ;; This function is called by:
  1067 ;;		_init_clcd
  1068 ;; This function uses a non-reentrant model
  1069 ;;
  1070                           
  1071     0097                     _init_display_controller:	
  1072                           ;psect for function _init_display_controller
  1073                           
  1074     0097                     l1138:	
  1075                           ;incstack = 0
  1076                           ; Regs used in _init_display_controller: [wreg+status,2+status,0+pclath+cstack]
  1077                           
  1078                           
  1079                           ;clcd.c: 21:     _delay((unsigned long)((30)*(20000000/4000.0)));
  1080     0097  30C3               	movlw	195
  1081     0098  00F5               	movwf	??_init_display_controller+1
  1082     0099  30CD               	movlw	205
  1083     009A  00F4               	movwf	??_init_display_controller
  1084     009B                     u2217:
  1085     009B  0BF4               	decfsz	??_init_display_controller,f
  1086     009C  289B               	goto	u2217
  1087     009D  0BF5               	decfsz	??_init_display_controller+1,f
  1088     009E  289B               	goto	u2217
  1089     009F                     l1140:
  1090                           
  1091                           ;clcd.c: 24:     clcd_write(0x33, 0);
  1092     009F  01F0               	clrf	clcd_write@mode
  1093     00A0  3033               	movlw	51
  1094     00A1  120A  158A  2791  120A  118A  	fcall	_clcd_write
  1095     00A6                     l1142:
  1096                           
  1097                           ;clcd.c: 25:     _delay((unsigned long)((4100)*(20000000/4000000.0)));
  1098     00A6  301B               	movlw	27
  1099     00A7  00F5               	movwf	??_init_display_controller+1
  1100     00A8  309E               	movlw	158
  1101     00A9  00F4               	movwf	??_init_display_controller
  1102     00AA                     u2227:
  1103     00AA  0BF4               	decfsz	??_init_display_controller,f
  1104     00AB  28AA               	goto	u2227
  1105     00AC  0BF5               	decfsz	??_init_display_controller+1,f
  1106     00AD  28AA               	goto	u2227
  1107     00AE  0000               	nop
  1108                           
  1109                           ;clcd.c: 26:     clcd_write(0x33, 0);
  1110     00AF  01F0               	clrf	clcd_write@mode
  1111     00B0  3033               	movlw	51
  1112     00B1  120A  158A  2791  120A  118A  	fcall	_clcd_write
  1113     00B6                     l1144:
  1114                           
  1115                           ;clcd.c: 27:     _delay((unsigned long)((100)*(20000000/4000000.0)));
  1116     00B6  30A6               	movlw	166
  1117     00B7  00F4               	movwf	??_init_display_controller
  1118     00B8                     u2237:
  1119     00B8  0BF4               	decfsz	??_init_display_controller,f
  1120     00B9  28B8               	goto	u2237
  1121     00BA  0000               	nop
  1122     00BB                     l1146:
  1123                           
  1124                           ;clcd.c: 28:     clcd_write(0x33, 0);
  1125     00BB  01F0               	clrf	clcd_write@mode
  1126     00BC  3033               	movlw	51
  1127     00BD  120A  158A  2791  120A  118A  	fcall	_clcd_write
  1128     00C2                     l1148:
  1129                           
  1130                           ;clcd.c: 29:     _delay((unsigned long)((1)*(20000000/4000000.0)));
  1131     00C2  28C3               	nop2	;2 cycle nop
  1132     00C3  28C4               	nop2	;2 cycle nop
  1133     00C4  0000               	nop
  1134     00C5                     l1150:
  1135                           
  1136                           ;clcd.c: 31:     clcd_write(0x38, 0);
  1137     00C5  01F0               	clrf	clcd_write@mode
  1138     00C6  3038               	movlw	56
  1139     00C7  120A  158A  2791  120A  118A  	fcall	_clcd_write
  1140     00CC                     l1152:
  1141                           
  1142                           ;clcd.c: 32:     _delay((unsigned long)((100)*(20000000/4000000.0)));
  1143     00CC  30A6               	movlw	166
  1144     00CD  00F4               	movwf	??_init_display_controller
  1145     00CE                     u2247:
  1146     00CE  0BF4               	decfsz	??_init_display_controller,f
  1147     00CF  28CE               	goto	u2247
  1148     00D0  0000               	nop
  1149                           
  1150                           ;clcd.c: 33:     clcd_write(0x01, 0);
  1151     00D1  01F0               	clrf	clcd_write@mode
  1152     00D2  3001               	movlw	1
  1153     00D3  120A  158A  2791  120A  118A  	fcall	_clcd_write
  1154     00D8                     l1154:
  1155                           
  1156                           ;clcd.c: 34:     _delay((unsigned long)((500)*(20000000/4000000.0)));
  1157     00D8  3004               	movlw	4
  1158     00D9  00F5               	movwf	??_init_display_controller+1
  1159     00DA  303D               	movlw	61
  1160     00DB  00F4               	movwf	??_init_display_controller
  1161     00DC                     u2257:
  1162     00DC  0BF4               	decfsz	??_init_display_controller,f
  1163     00DD  28DC               	goto	u2257
  1164     00DE  0BF5               	decfsz	??_init_display_controller+1,f
  1165     00DF  28DC               	goto	u2257
  1166     00E0  28E1               	nop2
  1167     00E1                     l1156:
  1168                           
  1169                           ;clcd.c: 35:     clcd_write(0x0c, 0);
  1170     00E1  01F0               	clrf	clcd_write@mode
  1171     00E2  300C               	movlw	12
  1172     00E3  120A  158A  2791  120A  118A  	fcall	_clcd_write
  1173                           
  1174                           ;clcd.c: 36:     _delay((unsigned long)((100)*(20000000/4000000.0)));
  1175     00E8  30A6               	movlw	166
  1176     00E9  00F4               	movwf	??_init_display_controller
  1177     00EA                     u2267:
  1178     00EA  0BF4               	decfsz	??_init_display_controller,f
  1179     00EB  28EA               	goto	u2267
  1180     00EC  0000               	nop
  1181     00ED                     l41:
  1182     00ED  0008               	return
  1183     00EE                     __end_of_init_display_controller:
  1184                           
  1185                           	psect	text5
  1186     0F63                     __ptext5:	
  1187 ;; *************** function _init_adc *****************
  1188 ;; Defined at:
  1189 ;;		line 3 in file "adc.c"
  1190 ;; Parameters:    Size  Location     Type
  1191 ;;		None
  1192 ;; Auto vars:     Size  Location     Type
  1193 ;;		None
  1194 ;; Return value:  Size  Location     Type
  1195 ;;                  1    wreg      void 
  1196 ;; Registers used:
  1197 ;;		None
  1198 ;; Tracked objects:
  1199 ;;		On entry : 0/0
  1200 ;;		On exit  : 0/0
  1201 ;;		Unchanged: 0/0
  1202 ;; Data sizes:     COMMON   BANK0   BANK1   BANK3   BANK2
  1203 ;;      Params:         0       0       0       0       0
  1204 ;;      Locals:         0       0       0       0       0
  1205 ;;      Temps:          0       0       0       0       0
  1206 ;;      Totals:         0       0       0       0       0
  1207 ;;Total ram usage:        0 bytes
  1208 ;; Hardware stack levels used: 1
  1209 ;; This function calls:
  1210 ;;		Nothing
  1211 ;; This function is called by:
  1212 ;;		_init_config
  1213 ;; This function uses a non-reentrant model
  1214 ;;
  1215                           
  1216     0F63                     _init_adc:	
  1217                           ;psect for function _init_adc
  1218                           
  1219     0F63                     l1158:	
  1220                           ;incstack = 0
  1221                           ; Regs used in _init_adc: []
  1222                           
  1223                           
  1224                           ;adc.c: 6:     ADFM = 1;
  1225     0F63  1683               	bsf	3,5	;RP0=1, select bank1
  1226     0F64  1303               	bcf	3,6	;RP1=0, select bank1
  1227     0F65  179F               	bsf	31,7	;volatile
  1228                           
  1229                           ;adc.c: 9:     ADON = 1;
  1230     0F66  1283               	bcf	3,5	;RP0=0, select bank0
  1231     0F67  1303               	bcf	3,6	;RP1=0, select bank0
  1232     0F68  141F               	bsf	31,0	;volatile
  1233     0F69                     l15:
  1234     0F69  0008               	return
  1235     0F6A                     __end_of_init_adc:
  1236                           
  1237                           	psect	text6
  1238     0F80                     __ptext6:	
  1239 ;; *************** function _clcd_putch *****************
  1240 ;; Defined at:
  1241 ;;		line 51 in file "clcd.c"
  1242 ;; Parameters:    Size  Location     Type
  1243 ;;  data            1    wreg     const unsigned char 
  1244 ;;  addr            1    7[COMMON] unsigned char 
  1245 ;; Auto vars:     Size  Location     Type
  1246 ;;  data            1    8[COMMON] const unsigned char 
  1247 ;; Return value:  Size  Location     Type
  1248 ;;                  1    wreg      void 
  1249 ;; Registers used:
  1250 ;;		wreg, status,2, status,0, pclath, cstack
  1251 ;; Tracked objects:
  1252 ;;		On entry : 0/0
  1253 ;;		On exit  : 0/0
  1254 ;;		Unchanged: 0/0
  1255 ;; Data sizes:     COMMON   BANK0   BANK1   BANK3   BANK2
  1256 ;;      Params:         1       0       0       0       0
  1257 ;;      Locals:         1       0       0       0       0
  1258 ;;      Temps:          0       0       0       0       0
  1259 ;;      Totals:         2       0       0       0       0
  1260 ;;Total ram usage:        2 bytes
  1261 ;; Hardware stack levels used: 1
  1262 ;; Hardware stack levels required when called: 1
  1263 ;; This function calls:
  1264 ;;		_clcd_write
  1265 ;; This function is called by:
  1266 ;;		_main
  1267 ;; This function uses a non-reentrant model
  1268 ;;
  1269                           
  1270     0F80                     _clcd_putch:	
  1271                           ;psect for function _clcd_putch
  1272                           
  1273                           
  1274                           ;incstack = 0
  1275                           ; Regs used in _clcd_putch: [wreg+status,2+status,0+pclath+cstack]
  1276                           ;clcd_putch@data stored from wreg
  1277     0F80  00F8               	movwf	clcd_putch@data
  1278     0F81                     l1188:
  1279                           
  1280                           ;clcd.c: 51: void clcd_putch(const char data, unsigned char addr);clcd.c: 52: {;clcd.c: 
      +                          53:     clcd_write(addr, 0);
  1281     0F81  01F0               	clrf	clcd_write@mode
  1282     0F82  0877               	movf	clcd_putch@addr,w
  1283     0F83  120A  158A  2791  120A  158A  	fcall	_clcd_write
  1284                           
  1285                           ;clcd.c: 54:     clcd_write(data, 1);
  1286     0F88  01F0               	clrf	clcd_write@mode
  1287     0F89  0AF0               	incf	clcd_write@mode,f
  1288     0F8A  0878               	movf	clcd_putch@data,w
  1289     0F8B  120A  158A  2791  120A  158A  	fcall	_clcd_write
  1290     0F90                     l47:
  1291     0F90  0008               	return
  1292     0F91                     __end_of_clcd_putch:
  1293                           
  1294                           	psect	text7
  1295     0FD8                     __ptext7:	
  1296 ;; *************** function _clcd_print *****************
  1297 ;; Defined at:
  1298 ;;		line 57 in file "clcd.c"
  1299 ;; Parameters:    Size  Location     Type
  1300 ;;  str             1    wreg     PTR const unsigned char 
  1301 ;;		 -> STR_3(6), STR_2(11), STR_1(18), 
  1302 ;;  addr            1    4[COMMON] unsigned char 
  1303 ;; Auto vars:     Size  Location     Type
  1304 ;;  str             1    5[COMMON] PTR const unsigned char 
  1305 ;;		 -> STR_3(6), STR_2(11), STR_1(18), 
  1306 ;; Return value:  Size  Location     Type
  1307 ;;                  1    wreg      void 
  1308 ;; Registers used:
  1309 ;;		wreg, fsr0l, fsr0h, status,2, status,0, btemp+1, pclath, cstack
  1310 ;; Tracked objects:
  1311 ;;		On entry : 0/0
  1312 ;;		On exit  : 0/0
  1313 ;;		Unchanged: 0/0
  1314 ;; Data sizes:     COMMON   BANK0   BANK1   BANK3   BANK2
  1315 ;;      Params:         1       0       0       0       0
  1316 ;;      Locals:         1       0       0       0       0
  1317 ;;      Temps:          0       0       0       0       0
  1318 ;;      Totals:         2       0       0       0       0
  1319 ;;Total ram usage:        2 bytes
  1320 ;; Hardware stack levels used: 1
  1321 ;; Hardware stack levels required when called: 1
  1322 ;; This function calls:
  1323 ;;		_clcd_write
  1324 ;; This function is called by:
  1325 ;;		_main
  1326 ;; This function uses a non-reentrant model
  1327 ;;
  1328                           
  1329     0FD8                     _clcd_print:	
  1330                           ;psect for function _clcd_print
  1331                           
  1332                           
  1333                           ;incstack = 0
  1334                           ; Regs used in _clcd_print: [wreg-fsr0h+status,2+status,0+btemp+1+pclath+cstack]
  1335                           ;clcd_print@str stored from wreg
  1336     0FD8  00F5               	movwf	clcd_print@str
  1337     0FD9                     l1190:
  1338                           
  1339                           ;clcd.c: 57: void clcd_print(const char *str, unsigned char addr);clcd.c: 58: {;clcd.c: 
      +                          59:     clcd_write(addr, 0);
  1340     0FD9  01F0               	clrf	clcd_write@mode
  1341     0FDA  0874               	movf	clcd_print@addr,w
  1342     0FDB  120A  158A  2791  120A  158A  	fcall	_clcd_write
  1343                           
  1344                           ;clcd.c: 61:     while (*str != '\0')
  1345     0FE0  2FF3               	goto	l1196
  1346     0FE1                     l1192:
  1347                           
  1348                           ;clcd.c: 62:     {;clcd.c: 63:         clcd_write(*str, 1);
  1349     0FE1  01F0               	clrf	clcd_write@mode
  1350     0FE2  0AF0               	incf	clcd_write@mode,f
  1351     0FE3  0875               	movf	clcd_print@str,w
  1352     0FE4  0084               	movwf	4
  1353     0FE5  120A  158A  2000  120A  158A  	fcall	stringdir
  1354     0FEA  120A  158A  2791  120A  158A  	fcall	_clcd_write
  1355     0FEF                     l1194:
  1356                           
  1357                           ;clcd.c: 64:         str++;
  1358     0FEF  3001               	movlw	1
  1359     0FF0  00FF               	movwf	btemp+1
  1360     0FF1  087F               	movf	btemp+1,w
  1361     0FF2  07F5               	addwf	clcd_print@str,f
  1362     0FF3                     l1196:
  1363                           
  1364                           ;clcd.c: 61:     while (*str != '\0')
  1365     0FF3  0875               	movf	clcd_print@str,w
  1366     0FF4  0084               	movwf	4
  1367     0FF5  120A  158A  2000  120A  158A  	fcall	stringdir
  1368     0FFA  3A00               	xorlw	0
  1369     0FFB  1D03               	skipz
  1370     0FFC  2FFE               	goto	u1171
  1371     0FFD  2FFF               	goto	u1170
  1372     0FFE                     u1171:
  1373     0FFE  2FE1               	goto	l1192
  1374     0FFF                     u1170:
  1375     0FFF                     l53:
  1376     0FFF  0008               	return
  1377     1000                     __end_of_clcd_print:
  1378                           
  1379                           	psect	text8
  1380     0F91                     __ptext8:	
  1381 ;; *************** function _clcd_write *****************
  1382 ;; Defined at:
  1383 ;;		line 6 in file "clcd.c"
  1384 ;; Parameters:    Size  Location     Type
  1385 ;;  byte            1    wreg     unsigned char 
  1386 ;;  mode            1    0[COMMON] unsigned char 
  1387 ;; Auto vars:     Size  Location     Type
  1388 ;;  byte            1    3[COMMON] unsigned char 
  1389 ;; Return value:  Size  Location     Type
  1390 ;;                  1    wreg      void 
  1391 ;; Registers used:
  1392 ;;		wreg
  1393 ;; Tracked objects:
  1394 ;;		On entry : 0/0
  1395 ;;		On exit  : 0/0
  1396 ;;		Unchanged: 0/0
  1397 ;; Data sizes:     COMMON   BANK0   BANK1   BANK3   BANK2
  1398 ;;      Params:         1       0       0       0       0
  1399 ;;      Locals:         1       0       0       0       0
  1400 ;;      Temps:          2       0       0       0       0
  1401 ;;      Totals:         4       0       0       0       0
  1402 ;;Total ram usage:        4 bytes
  1403 ;; Hardware stack levels used: 1
  1404 ;; This function calls:
  1405 ;;		Nothing
  1406 ;; This function is called by:
  1407 ;;		_init_display_controller
  1408 ;;		_clcd_putch
  1409 ;;		_clcd_print
  1410 ;; This function uses a non-reentrant model
  1411 ;;
  1412                           
  1413     0F91                     _clcd_write:	
  1414                           ;psect for function _clcd_write
  1415                           
  1416                           
  1417                           ;incstack = 0
  1418                           ; Regs used in _clcd_write: [wreg]
  1419                           ;clcd_write@byte stored from wreg
  1420     0F91  00F3               	movwf	clcd_write@byte
  1421     0F92                     l1130:
  1422                           
  1423                           ;clcd.c: 6: static void clcd_write(unsigned char byte, unsigned char mode);clcd.c: 7: {;
      +                          clcd.c: 8:     RE2 = mode;
  1424     0F92  1870               	btfsc	clcd_write@mode,0
  1425     0F93  2F95               	goto	u1111
  1426     0F94  2F99               	goto	u1110
  1427     0F95                     u1111:
  1428     0F95  1283               	bcf	3,5	;RP0=0, select bank0
  1429     0F96  1303               	bcf	3,6	;RP1=0, select bank0
  1430     0F97  1509               	bsf	9,2	;volatile
  1431     0F98  2F9C               	goto	u1124
  1432     0F99                     u1110:
  1433     0F99  1283               	bcf	3,5	;RP0=0, select bank0
  1434     0F9A  1303               	bcf	3,6	;RP1=0, select bank0
  1435     0F9B  1109               	bcf	9,2	;volatile
  1436     0F9C                     u1124:
  1437     0F9C                     l1132:
  1438                           
  1439                           ;clcd.c: 9:     PORTD = byte;
  1440     0F9C  0873               	movf	clcd_write@byte,w
  1441     0F9D  0088               	movwf	8	;volatile
  1442     0F9E                     l1134:
  1443                           
  1444                           ;clcd.c: 11:     RE1 = 1;
  1445     0F9E  1489               	bsf	9,1	;volatile
  1446                           
  1447                           ;clcd.c: 12:     _delay((unsigned long)((100)*(20000000/4000000.0)));
  1448     0F9F  30A6               	movlw	166
  1449     0FA0  00F1               	movwf	??_clcd_write
  1450     0FA1                     u2277:
  1451     0FA1  0BF1               	decfsz	??_clcd_write,f
  1452     0FA2  2FA1               	goto	u2277
  1453     0FA3  0000               	nop
  1454     0FA4                     l1136:
  1455                           
  1456                           ;clcd.c: 13:     RE1 = 0;
  1457     0FA4  1283               	bcf	3,5	;RP0=0, select bank0
  1458     0FA5  1303               	bcf	3,6	;RP1=0, select bank0
  1459     0FA6  1089               	bcf	9,1	;volatile
  1460                           
  1461                           ;clcd.c: 15:     _delay((unsigned long)((4100)*(20000000/4000000.0)));
  1462     0FA7  301B               	movlw	27
  1463     0FA8  00F2               	movwf	??_clcd_write+1
  1464     0FA9  309E               	movlw	158
  1465     0FAA  00F1               	movwf	??_clcd_write
  1466     0FAB                     u2287:
  1467     0FAB  0BF1               	decfsz	??_clcd_write,f
  1468     0FAC  2FAB               	goto	u2287
  1469     0FAD  0BF2               	decfsz	??_clcd_write+1,f
  1470     0FAE  2FAB               	goto	u2287
  1471     0FAF  0000               	nop
  1472     0FB0                     l38:
  1473     0FB0  0008               	return
  1474     0FB1                     __end_of_clcd_write:
  1475                           
  1476                           	psect	text9
  1477     0166                     __ptext9:	
  1478 ;; *************** function ___xxtofl *****************
  1479 ;; Defined at:
  1480 ;;		line 10 in file "C:\Program Files\Microchip\xc8\v2.46\pic\sources\c99\common\xxtofl.c"
  1481 ;; Parameters:    Size  Location     Type
  1482 ;;  sign            1    wreg     unsigned char 
  1483 ;;  val             4    0[COMMON] long 
  1484 ;; Auto vars:     Size  Location     Type
  1485 ;;  sign            1    8[COMMON] unsigned char 
  1486 ;;  arg             4   10[COMMON] unsigned long 
  1487 ;;  exp             1    9[COMMON] unsigned char 
  1488 ;; Return value:  Size  Location     Type
  1489 ;;                  4    0[COMMON] unsigned char 
  1490 ;; Registers used:
  1491 ;;		wreg, status,2, status,0, btemp+1
  1492 ;; Tracked objects:
  1493 ;;		On entry : 0/0
  1494 ;;		On exit  : 0/0
  1495 ;;		Unchanged: 0/0
  1496 ;; Data sizes:     COMMON   BANK0   BANK1   BANK3   BANK2
  1497 ;;      Params:         4       0       0       0       0
  1498 ;;      Locals:         6       0       0       0       0
  1499 ;;      Temps:          4       0       0       0       0
  1500 ;;      Totals:        14       0       0       0       0
  1501 ;;Total ram usage:       14 bytes
  1502 ;; Hardware stack levels used: 1
  1503 ;; This function calls:
  1504 ;;		Nothing
  1505 ;; This function is called by:
  1506 ;;		_main
  1507 ;; This function uses a non-reentrant model
  1508 ;;
  1509                           
  1510     0166                     ___xxtofl:	
  1511                           ;psect for function ___xxtofl
  1512                           
  1513                           
  1514                           ;incstack = 0
  1515                           ; Regs used in ___xxtofl: [wreg+status,2+status,0+btemp+1]
  1516                           ;___xxtofl@sign stored from wreg
  1517     0166  00F8               	movwf	___xxtofl@sign
  1518     0167                     l1576:
  1519     0167  0878               	movf	___xxtofl@sign,w
  1520     0168  1903               	btfsc	3,2
  1521     0169  296B               	goto	u2071
  1522     016A  296C               	goto	u2070
  1523     016B                     u2071:
  1524     016B  2980               	goto	l1582
  1525     016C                     u2070:
  1526     016C                     l1578:
  1527     016C  1FF3               	btfss	___xxtofl@val+3,7
  1528     016D  296F               	goto	u2081
  1529     016E  2970               	goto	u2080
  1530     016F                     u2081:
  1531     016F  2980               	goto	l1582
  1532     0170                     u2080:
  1533     0170                     l1580:
  1534     0170  0970               	comf	___xxtofl@val,w
  1535     0171  00FA               	movwf	___xxtofl@arg
  1536     0172  0971               	comf	___xxtofl@val+1,w
  1537     0173  00FB               	movwf	___xxtofl@arg+1
  1538     0174  0972               	comf	___xxtofl@val+2,w
  1539     0175  00FC               	movwf	___xxtofl@arg+2
  1540     0176  0973               	comf	___xxtofl@val+3,w
  1541     0177  00FD               	movwf	___xxtofl@arg+3
  1542     0178  0AFA               	incf	___xxtofl@arg,f
  1543     0179  1903               	skipnz
  1544     017A  0AFB               	incf	___xxtofl@arg+1,f
  1545     017B  1903               	skipnz
  1546     017C  0AFC               	incf	___xxtofl@arg+2,f
  1547     017D  1903               	skipnz
  1548     017E  0AFD               	incf	___xxtofl@arg+3,f
  1549     017F  2988               	goto	l601
  1550     0180                     l1582:
  1551     0180  0873               	movf	___xxtofl@val+3,w
  1552     0181  00FD               	movwf	___xxtofl@arg+3
  1553     0182  0872               	movf	___xxtofl@val+2,w
  1554     0183  00FC               	movwf	___xxtofl@arg+2
  1555     0184  0871               	movf	___xxtofl@val+1,w
  1556     0185  00FB               	movwf	___xxtofl@arg+1
  1557     0186  0870               	movf	___xxtofl@val,w
  1558     0187  00FA               	movwf	___xxtofl@arg
  1559     0188                     l601:
  1560     0188  0873               	movf	___xxtofl@val+3,w
  1561     0189  0472               	iorwf	___xxtofl@val+2,w
  1562     018A  0471               	iorwf	___xxtofl@val+1,w
  1563     018B  0470               	iorwf	___xxtofl@val,w
  1564     018C  1D03               	skipz
  1565     018D  298F               	goto	u2091
  1566     018E  2990               	goto	u2090
  1567     018F                     u2091:
  1568     018F  2999               	goto	l1588
  1569     0190                     u2090:
  1570     0190                     l1584:
  1571     0190  3000               	movlw	0
  1572     0191  00F3               	movwf	?___xxtofl+3
  1573     0192  3000               	movlw	0
  1574     0193  00F2               	movwf	?___xxtofl+2
  1575     0194  3000               	movlw	0
  1576     0195  00F1               	movwf	?___xxtofl+1
  1577     0196  3000               	movlw	0
  1578     0197  00F0               	movwf	?___xxtofl
  1579     0198  2A1D               	goto	l603
  1580     0199                     l1588:
  1581     0199  3096               	movlw	150
  1582     019A  00F9               	movwf	___xxtofl@exp
  1583     019B  29A9               	goto	l1594
  1584     019C                     l1590:
  1585     019C  3001               	movlw	1
  1586     019D  00FF               	movwf	btemp+1
  1587     019E  087F               	movf	btemp+1,w
  1588     019F  07F9               	addwf	___xxtofl@exp,f
  1589     01A0                     l1592:
  1590     01A0  3001               	movlw	1
  1591     01A1                     u2105:
  1592     01A1  1003               	clrc
  1593     01A2  0CFD               	rrf	___xxtofl@arg+3,f
  1594     01A3  0CFC               	rrf	___xxtofl@arg+2,f
  1595     01A4  0CFB               	rrf	___xxtofl@arg+1,f
  1596     01A5  0CFA               	rrf	___xxtofl@arg,f
  1597     01A6  3EFF               	addlw	-1
  1598     01A7  1D03               	skipz
  1599     01A8  29A1               	goto	u2105
  1600     01A9                     l1594:
  1601     01A9  30FE               	movlw	254
  1602     01AA  057D               	andwf	___xxtofl@arg+3,w
  1603     01AB  1D03               	btfss	3,2
  1604     01AC  29AE               	goto	u2111
  1605     01AD  29AF               	goto	u2110
  1606     01AE                     u2111:
  1607     01AE  299C               	goto	l1590
  1608     01AF                     u2110:
  1609     01AF  29CB               	goto	l1602
  1610     01B0                     l1596:
  1611     01B0  3001               	movlw	1
  1612     01B1  00FF               	movwf	btemp+1
  1613     01B2  087F               	movf	btemp+1,w
  1614     01B3  07F9               	addwf	___xxtofl@exp,f
  1615     01B4                     l1598:
  1616     01B4  3001               	movlw	1
  1617     01B5  07FA               	addwf	___xxtofl@arg,f
  1618     01B6  3000               	movlw	0
  1619     01B7  1803               	skipnc
  1620     01B8  3001               	movlw	1
  1621     01B9  07FB               	addwf	___xxtofl@arg+1,f
  1622     01BA  3000               	movlw	0
  1623     01BB  1803               	skipnc
  1624     01BC  3001               	movlw	1
  1625     01BD  07FC               	addwf	___xxtofl@arg+2,f
  1626     01BE  3000               	movlw	0
  1627     01BF  1803               	skipnc
  1628     01C0  3001               	movlw	1
  1629     01C1  07FD               	addwf	___xxtofl@arg+3,f
  1630     01C2                     l1600:
  1631     01C2  3001               	movlw	1
  1632     01C3                     u2125:
  1633     01C3  1003               	clrc
  1634     01C4  0CFD               	rrf	___xxtofl@arg+3,f
  1635     01C5  0CFC               	rrf	___xxtofl@arg+2,f
  1636     01C6  0CFB               	rrf	___xxtofl@arg+1,f
  1637     01C7  0CFA               	rrf	___xxtofl@arg,f
  1638     01C8  3EFF               	addlw	-1
  1639     01C9  1D03               	skipz
  1640     01CA  29C3               	goto	u2125
  1641     01CB                     l1602:
  1642     01CB  30FF               	movlw	255
  1643     01CC  057D               	andwf	___xxtofl@arg+3,w
  1644     01CD  1D03               	btfss	3,2
  1645     01CE  29D0               	goto	u2131
  1646     01CF  29D1               	goto	u2130
  1647     01D0                     u2131:
  1648     01D0  29B0               	goto	l1596
  1649     01D1                     u2130:
  1650     01D1  29DD               	goto	l1606
  1651     01D2                     l1604:
  1652     01D2  3001               	movlw	1
  1653     01D3  02F9               	subwf	___xxtofl@exp,f
  1654     01D4  3001               	movlw	1
  1655     01D5  00F4               	movwf	??___xxtofl
  1656     01D6                     u2145:
  1657     01D6  1003               	clrc
  1658     01D7  0DFA               	rlf	___xxtofl@arg,f
  1659     01D8  0DFB               	rlf	___xxtofl@arg+1,f
  1660     01D9  0DFC               	rlf	___xxtofl@arg+2,f
  1661     01DA  0DFD               	rlf	___xxtofl@arg+3,f
  1662     01DB  0BF4               	decfsz	??___xxtofl,f
  1663     01DC  29D6               	goto	u2145
  1664     01DD                     l1606:
  1665     01DD  1BFC               	btfsc	___xxtofl@arg+2,7
  1666     01DE  29E0               	goto	u2151
  1667     01DF  29E1               	goto	u2150
  1668     01E0                     u2151:
  1669     01E0  29E7               	goto	l614
  1670     01E1                     u2150:
  1671     01E1                     l1608:
  1672     01E1  3002               	movlw	2
  1673     01E2  0279               	subwf	___xxtofl@exp,w
  1674     01E3  1803               	skipnc
  1675     01E4  29E6               	goto	u2161
  1676     01E5  29E7               	goto	u2160
  1677     01E6                     u2161:
  1678     01E6  29D2               	goto	l1604
  1679     01E7                     u2160:
  1680     01E7                     l614:
  1681     01E7  1879               	btfsc	___xxtofl@exp,0
  1682     01E8  29EA               	goto	u2171
  1683     01E9  29EB               	goto	u2170
  1684     01EA                     u2171:
  1685     01EA  29F3               	goto	l615
  1686     01EB                     u2170:
  1687     01EB                     l1610:
  1688     01EB  30FF               	movlw	255
  1689     01EC  05FA               	andwf	___xxtofl@arg,f
  1690     01ED  30FF               	movlw	255
  1691     01EE  05FB               	andwf	___xxtofl@arg+1,f
  1692     01EF  307F               	movlw	127
  1693     01F0  05FC               	andwf	___xxtofl@arg+2,f
  1694     01F1  30FF               	movlw	255
  1695     01F2  05FD               	andwf	___xxtofl@arg+3,f
  1696     01F3                     l615:
  1697     01F3  1003               	clrc
  1698     01F4  0CF9               	rrf	___xxtofl@exp,f
  1699     01F5                     l1612:
  1700     01F5  0879               	movf	___xxtofl@exp,w
  1701     01F6  00F4               	movwf	??___xxtofl
  1702     01F7  01F5               	clrf	??___xxtofl+1
  1703     01F8  01F6               	clrf	??___xxtofl+2
  1704     01F9  01F7               	clrf	??___xxtofl+3
  1705     01FA  3018               	movlw	24
  1706     01FB                     u2185:
  1707     01FB  1003               	clrc
  1708     01FC  0DF4               	rlf	??___xxtofl,f
  1709     01FD  0DF5               	rlf	??___xxtofl+1,f
  1710     01FE  0DF6               	rlf	??___xxtofl+2,f
  1711     01FF  0DF7               	rlf	??___xxtofl+3,f
  1712     0200                     u2180:
  1713     0200  3EFF               	addlw	-1
  1714     0201  1D03               	skipz
  1715     0202  29FB               	goto	u2185
  1716     0203  0874               	movf	??___xxtofl,w
  1717     0204  04FA               	iorwf	___xxtofl@arg,f
  1718     0205  0875               	movf	??___xxtofl+1,w
  1719     0206  04FB               	iorwf	___xxtofl@arg+1,f
  1720     0207  0876               	movf	??___xxtofl+2,w
  1721     0208  04FC               	iorwf	___xxtofl@arg+2,f
  1722     0209  0877               	movf	??___xxtofl+3,w
  1723     020A  04FD               	iorwf	___xxtofl@arg+3,f
  1724     020B                     l1614:
  1725     020B  0878               	movf	___xxtofl@sign,w
  1726     020C  1903               	btfsc	3,2
  1727     020D  2A0F               	goto	u2191
  1728     020E  2A10               	goto	u2190
  1729     020F                     u2191:
  1730     020F  2A15               	goto	l1620
  1731     0210                     u2190:
  1732     0210                     l1616:
  1733     0210  1FF3               	btfss	___xxtofl@val+3,7
  1734     0211  2A13               	goto	u2201
  1735     0212  2A14               	goto	u2200
  1736     0213                     u2201:
  1737     0213  2A15               	goto	l1620
  1738     0214                     u2200:
  1739     0214                     l1618:
  1740     0214  17FD               	bsf	___xxtofl@arg+3,7
  1741     0215                     l1620:
  1742     0215  087D               	movf	___xxtofl@arg+3,w
  1743     0216  00F3               	movwf	?___xxtofl+3
  1744     0217  087C               	movf	___xxtofl@arg+2,w
  1745     0218  00F2               	movwf	?___xxtofl+2
  1746     0219  087B               	movf	___xxtofl@arg+1,w
  1747     021A  00F1               	movwf	?___xxtofl+1
  1748     021B  087A               	movf	___xxtofl@arg,w
  1749     021C  00F0               	movwf	?___xxtofl
  1750     021D                     l603:
  1751     021D  0008               	return
  1752     021E                     __end_of___xxtofl:
  1753                           
  1754                           	psect	text10
  1755     0019                     __ptext10:	
  1756 ;; *************** function ___lwmod *****************
  1757 ;; Defined at:
  1758 ;;		line 5 in file "C:\Program Files\Microchip\xc8\v2.46\pic\sources\c99\common\lwmod.c"
  1759 ;; Parameters:    Size  Location     Type
  1760 ;;  divisor         2    0[COMMON] unsigned int 
  1761 ;;  dividend        2    2[COMMON] unsigned int 
  1762 ;; Auto vars:     Size  Location     Type
  1763 ;;  counter         1    4[COMMON] unsigned char 
  1764 ;; Return value:  Size  Location     Type
  1765 ;;                  2    0[COMMON] unsigned int 
  1766 ;; Registers used:
  1767 ;;		wreg, status,2, status,0, btemp+1
  1768 ;; Tracked objects:
  1769 ;;		On entry : 0/0
  1770 ;;		On exit  : 0/0
  1771 ;;		Unchanged: 0/0
  1772 ;; Data sizes:     COMMON   BANK0   BANK1   BANK3   BANK2
  1773 ;;      Params:         4       0       0       0       0
  1774 ;;      Locals:         1       0       0       0       0
  1775 ;;      Temps:          0       0       0       0       0
  1776 ;;      Totals:         5       0       0       0       0
  1777 ;;Total ram usage:        5 bytes
  1778 ;; Hardware stack levels used: 1
  1779 ;; This function calls:
  1780 ;;		Nothing
  1781 ;; This function is called by:
  1782 ;;		_main
  1783 ;; This function uses a non-reentrant model
  1784 ;;
  1785                           
  1786     0019                     ___lwmod:	
  1787                           ;psect for function ___lwmod
  1788                           
  1789     0019                     l1266:	
  1790                           ;incstack = 0
  1791                           ; Regs used in ___lwmod: [wreg+status,2+status,0+btemp+1]
  1792                           
  1793     0019  0870               	movf	___lwmod@divisor,w
  1794     001A  0471               	iorwf	___lwmod@divisor+1,w
  1795     001B  1903               	btfsc	3,2
  1796     001C  281E               	goto	u1351
  1797     001D  281F               	goto	u1350
  1798     001E                     u1351:
  1799     001E  284E               	goto	l1284
  1800     001F                     u1350:
  1801     001F                     l1268:
  1802     001F  01F4               	clrf	___lwmod@counter
  1803     0020  0AF4               	incf	___lwmod@counter,f
  1804     0021  282D               	goto	l1274
  1805     0022                     l1270:
  1806     0022  3001               	movlw	1
  1807     0023                     u1365:
  1808     0023  1003               	clrc
  1809     0024  0DF0               	rlf	___lwmod@divisor,f
  1810     0025  0DF1               	rlf	___lwmod@divisor+1,f
  1811     0026  3EFF               	addlw	-1
  1812     0027  1D03               	skipz
  1813     0028  2823               	goto	u1365
  1814     0029                     l1272:
  1815     0029  3001               	movlw	1
  1816     002A  00FF               	movwf	btemp+1
  1817     002B  087F               	movf	btemp+1,w
  1818     002C  07F4               	addwf	___lwmod@counter,f
  1819     002D                     l1274:
  1820     002D  1FF1               	btfss	___lwmod@divisor+1,7
  1821     002E  2830               	goto	u1371
  1822     002F  2831               	goto	u1370
  1823     0030                     u1371:
  1824     0030  2822               	goto	l1270
  1825     0031                     u1370:
  1826     0031                     l1276:
  1827     0031  0871               	movf	___lwmod@divisor+1,w
  1828     0032  0273               	subwf	___lwmod@dividend+1,w
  1829     0033  1D03               	skipz
  1830     0034  2837               	goto	u1385
  1831     0035  0870               	movf	___lwmod@divisor,w
  1832     0036  0272               	subwf	___lwmod@dividend,w
  1833     0037                     u1385:
  1834     0037  1C03               	skipc
  1835     0038  283A               	goto	u1381
  1836     0039  283B               	goto	u1380
  1837     003A                     u1381:
  1838     003A  2841               	goto	l1280
  1839     003B                     u1380:
  1840     003B                     l1278:
  1841     003B  0870               	movf	___lwmod@divisor,w
  1842     003C  02F2               	subwf	___lwmod@dividend,f
  1843     003D  0871               	movf	___lwmod@divisor+1,w
  1844     003E  1C03               	skipc
  1845     003F  03F3               	decf	___lwmod@dividend+1,f
  1846     0040  02F3               	subwf	___lwmod@dividend+1,f
  1847     0041                     l1280:
  1848     0041  3001               	movlw	1
  1849     0042                     u1395:
  1850     0042  1003               	clrc
  1851     0043  0CF1               	rrf	___lwmod@divisor+1,f
  1852     0044  0CF0               	rrf	___lwmod@divisor,f
  1853     0045  3EFF               	addlw	-1
  1854     0046  1D03               	skipz
  1855     0047  2842               	goto	u1395
  1856     0048                     l1282:
  1857     0048  3001               	movlw	1
  1858     0049  02F4               	subwf	___lwmod@counter,f
  1859     004A  1D03               	btfss	3,2
  1860     004B  284D               	goto	u1401
  1861     004C  284E               	goto	u1400
  1862     004D                     u1401:
  1863     004D  2831               	goto	l1276
  1864     004E                     u1400:
  1865     004E                     l1284:
  1866     004E  0873               	movf	___lwmod@dividend+1,w
  1867     004F  00F1               	movwf	?___lwmod+1
  1868     0050  0872               	movf	___lwmod@dividend,w
  1869     0051  00F0               	movwf	?___lwmod
  1870     0052                     l450:
  1871     0052  0008               	return
  1872     0053                     __end_of___lwmod:
  1873                           
  1874                           	psect	text11
  1875     0053                     __ptext11:	
  1876 ;; *************** function ___lwdiv *****************
  1877 ;; Defined at:
  1878 ;;		line 5 in file "C:\Program Files\Microchip\xc8\v2.46\pic\sources\c99\common\lwdiv.c"
  1879 ;; Parameters:    Size  Location     Type
  1880 ;;  divisor         2    0[COMMON] unsigned int 
  1881 ;;  dividend        2    2[COMMON] unsigned int 
  1882 ;; Auto vars:     Size  Location     Type
  1883 ;;  quotient        2    4[COMMON] unsigned int 
  1884 ;;  counter         1    6[COMMON] unsigned char 
  1885 ;; Return value:  Size  Location     Type
  1886 ;;                  2    0[COMMON] unsigned int 
  1887 ;; Registers used:
  1888 ;;		wreg, status,2, status,0, btemp+1
  1889 ;; Tracked objects:
  1890 ;;		On entry : 0/0
  1891 ;;		On exit  : 0/0
  1892 ;;		Unchanged: 0/0
  1893 ;; Data sizes:     COMMON   BANK0   BANK1   BANK3   BANK2
  1894 ;;      Params:         4       0       0       0       0
  1895 ;;      Locals:         3       0       0       0       0
  1896 ;;      Temps:          0       0       0       0       0
  1897 ;;      Totals:         7       0       0       0       0
  1898 ;;Total ram usage:        7 bytes
  1899 ;; Hardware stack levels used: 1
  1900 ;; This function calls:
  1901 ;;		Nothing
  1902 ;; This function is called by:
  1903 ;;		_main
  1904 ;; This function uses a non-reentrant model
  1905 ;;
  1906                           
  1907     0053                     ___lwdiv:	
  1908                           ;psect for function ___lwdiv
  1909                           
  1910     0053                     l1240:	
  1911                           ;incstack = 0
  1912                           ; Regs used in ___lwdiv: [wreg+status,2+status,0+btemp+1]
  1913                           
  1914     0053  01F4               	clrf	___lwdiv@quotient
  1915     0054  01F5               	clrf	___lwdiv@quotient+1
  1916     0055                     l1242:
  1917     0055  0870               	movf	___lwdiv@divisor,w
  1918     0056  0471               	iorwf	___lwdiv@divisor+1,w
  1919     0057  1903               	btfsc	3,2
  1920     0058  285A               	goto	u1281
  1921     0059  285B               	goto	u1280
  1922     005A                     u1281:
  1923     005A  2892               	goto	l1262
  1924     005B                     u1280:
  1925     005B                     l1244:
  1926     005B  01F6               	clrf	___lwdiv@counter
  1927     005C  0AF6               	incf	___lwdiv@counter,f
  1928     005D  2869               	goto	l1250
  1929     005E                     l1246:
  1930     005E  3001               	movlw	1
  1931     005F                     u1295:
  1932     005F  1003               	clrc
  1933     0060  0DF0               	rlf	___lwdiv@divisor,f
  1934     0061  0DF1               	rlf	___lwdiv@divisor+1,f
  1935     0062  3EFF               	addlw	-1
  1936     0063  1D03               	skipz
  1937     0064  285F               	goto	u1295
  1938     0065                     l1248:
  1939     0065  3001               	movlw	1
  1940     0066  00FF               	movwf	btemp+1
  1941     0067  087F               	movf	btemp+1,w
  1942     0068  07F6               	addwf	___lwdiv@counter,f
  1943     0069                     l1250:
  1944     0069  1FF1               	btfss	___lwdiv@divisor+1,7
  1945     006A  286C               	goto	u1301
  1946     006B  286D               	goto	u1300
  1947     006C                     u1301:
  1948     006C  285E               	goto	l1246
  1949     006D                     u1300:
  1950     006D                     l1252:
  1951     006D  3001               	movlw	1
  1952     006E                     u1315:
  1953     006E  1003               	clrc
  1954     006F  0DF4               	rlf	___lwdiv@quotient,f
  1955     0070  0DF5               	rlf	___lwdiv@quotient+1,f
  1956     0071  3EFF               	addlw	-1
  1957     0072  1D03               	skipz
  1958     0073  286E               	goto	u1315
  1959     0074  0871               	movf	___lwdiv@divisor+1,w
  1960     0075  0273               	subwf	___lwdiv@dividend+1,w
  1961     0076  1D03               	skipz
  1962     0077  287A               	goto	u1325
  1963     0078  0870               	movf	___lwdiv@divisor,w
  1964     0079  0272               	subwf	___lwdiv@dividend,w
  1965     007A                     u1325:
  1966     007A  1C03               	skipc
  1967     007B  287D               	goto	u1321
  1968     007C  287E               	goto	u1320
  1969     007D                     u1321:
  1970     007D  2885               	goto	l1258
  1971     007E                     u1320:
  1972     007E                     l1254:
  1973     007E  0870               	movf	___lwdiv@divisor,w
  1974     007F  02F2               	subwf	___lwdiv@dividend,f
  1975     0080  0871               	movf	___lwdiv@divisor+1,w
  1976     0081  1C03               	skipc
  1977     0082  03F3               	decf	___lwdiv@dividend+1,f
  1978     0083  02F3               	subwf	___lwdiv@dividend+1,f
  1979     0084                     l1256:
  1980     0084  1474               	bsf	___lwdiv@quotient,0
  1981     0085                     l1258:
  1982     0085  3001               	movlw	1
  1983     0086                     u1335:
  1984     0086  1003               	clrc
  1985     0087  0CF1               	rrf	___lwdiv@divisor+1,f
  1986     0088  0CF0               	rrf	___lwdiv@divisor,f
  1987     0089  3EFF               	addlw	-1
  1988     008A  1D03               	skipz
  1989     008B  2886               	goto	u1335
  1990     008C                     l1260:
  1991     008C  3001               	movlw	1
  1992     008D  02F6               	subwf	___lwdiv@counter,f
  1993     008E  1D03               	btfss	3,2
  1994     008F  2891               	goto	u1341
  1995     0090  2892               	goto	u1340
  1996     0091                     u1341:
  1997     0091  286D               	goto	l1252
  1998     0092                     u1340:
  1999     0092                     l1262:
  2000     0092  0875               	movf	___lwdiv@quotient+1,w
  2001     0093  00F1               	movwf	?___lwdiv+1
  2002     0094  0874               	movf	___lwdiv@quotient,w
  2003     0095  00F0               	movwf	?___lwdiv
  2004     0096                     l440:
  2005     0096  0008               	return
  2006     0097                     __end_of___lwdiv:
  2007                           
  2008                           	psect	text12
  2009     00EE                     __ptext12:	
  2010 ;; *************** function ___fltol *****************
  2011 ;; Defined at:
  2012 ;;		line 43 in file "C:\Program Files\Microchip\xc8\v2.46\pic\sources\c99\common\fltol.c"
  2013 ;; Parameters:    Size  Location     Type
  2014 ;;  f1              4   52[BANK0 ] unsigned int 
  2015 ;; Auto vars:     Size  Location     Type
  2016 ;;  exp1            1   61[BANK0 ] unsigned char 
  2017 ;;  sign1           1   60[BANK0 ] unsigned char 
  2018 ;; Return value:  Size  Location     Type
  2019 ;;                  4   52[BANK0 ] long 
  2020 ;; Registers used:
  2021 ;;		wreg, status,2, status,0, btemp+1
  2022 ;; Tracked objects:
  2023 ;;		On entry : 0/0
  2024 ;;		On exit  : 0/0
  2025 ;;		Unchanged: 0/0
  2026 ;; Data sizes:     COMMON   BANK0   BANK1   BANK3   BANK2
  2027 ;;      Params:         0       4       0       0       0
  2028 ;;      Locals:         0       2       0       0       0
  2029 ;;      Temps:          0       4       0       0       0
  2030 ;;      Totals:         0      10       0       0       0
  2031 ;;Total ram usage:       10 bytes
  2032 ;; Hardware stack levels used: 1
  2033 ;; This function calls:
  2034 ;;		Nothing
  2035 ;; This function is called by:
  2036 ;;		_main
  2037 ;; This function uses a non-reentrant model
  2038 ;;
  2039                           
  2040     00EE                     ___fltol:	
  2041                           ;psect for function ___fltol
  2042                           
  2043     00EE                     l1202:	
  2044                           ;incstack = 0
  2045                           ; Regs used in ___fltol: [wreg+status,2+status,0+btemp+1]
  2046                           
  2047     00EE  1003               	clrc
  2048     00EF  1283               	bcf	3,5	;RP0=0, select bank0
  2049     00F0  1303               	bcf	3,6	;RP1=0, select bank0
  2050     00F1  0D56               	rlf	___fltol@f1+2,w
  2051     00F2  0D57               	rlf	___fltol@f1+3,w
  2052     00F3  00DD               	movwf	___fltol@exp1
  2053     00F4  085D               	movf	___fltol@exp1,w
  2054     00F5  1D03               	btfss	3,2
  2055     00F6  28F8               	goto	u1181
  2056     00F7  28F9               	goto	u1180
  2057     00F8                     u1181:
  2058     00F8  2902               	goto	l1208
  2059     00F9                     u1180:
  2060     00F9                     l1204:
  2061     00F9  3000               	movlw	0
  2062     00FA  00D7               	movwf	?___fltol+3
  2063     00FB  3000               	movlw	0
  2064     00FC  00D6               	movwf	?___fltol+2
  2065     00FD  3000               	movlw	0
  2066     00FE  00D5               	movwf	?___fltol+1
  2067     00FF  3000               	movlw	0
  2068     0100  00D4               	movwf	?___fltol
  2069     0101  2965               	goto	l354
  2070     0102                     l1208:
  2071     0102  0854               	movf	___fltol@f1,w
  2072     0103  00D8               	movwf	??___fltol
  2073     0104  0855               	movf	___fltol@f1+1,w
  2074     0105  00D9               	movwf	??___fltol+1
  2075     0106  0856               	movf	___fltol@f1+2,w
  2076     0107  00DA               	movwf	??___fltol+2
  2077     0108  0857               	movf	___fltol@f1+3,w
  2078     0109  00DB               	movwf	??___fltol+3
  2079     010A  301F               	movlw	31
  2080     010B                     u1195:
  2081     010B  1003               	clrc
  2082     010C  0CDB               	rrf	??___fltol+3,f
  2083     010D  0CDA               	rrf	??___fltol+2,f
  2084     010E  0CD9               	rrf	??___fltol+1,f
  2085     010F  0CD8               	rrf	??___fltol,f
  2086     0110                     u1190:
  2087     0110  3EFF               	addlw	-1
  2088     0111  1D03               	skipz
  2089     0112  290B               	goto	u1195
  2090     0113  0858               	movf	??___fltol,w
  2091     0114  00DC               	movwf	___fltol@sign1
  2092     0115                     l1210:
  2093     0115  17D6               	bsf	___fltol@f1+2,7
  2094     0116                     l1212:
  2095     0116  30FF               	movlw	255
  2096     0117  05D4               	andwf	___fltol@f1,f
  2097     0118  30FF               	movlw	255
  2098     0119  05D5               	andwf	___fltol@f1+1,f
  2099     011A  30FF               	movlw	255
  2100     011B  05D6               	andwf	___fltol@f1+2,f
  2101     011C  3000               	movlw	0
  2102     011D  05D7               	andwf	___fltol@f1+3,f
  2103     011E                     l1214:
  2104     011E  3096               	movlw	150
  2105     011F  02DD               	subwf	___fltol@exp1,f
  2106     0120                     l1216:
  2107     0120  1FDD               	btfss	___fltol@exp1,7
  2108     0121  2923               	goto	u1201
  2109     0122  2924               	goto	u1200
  2110     0123                     u1201:
  2111     0123  293E               	goto	l1228
  2112     0124                     u1200:
  2113     0124                     l1218:
  2114     0124  085D               	movf	___fltol@exp1,w
  2115     0125  3A80               	xorlw	128
  2116     0126  3E97               	addlw	151
  2117     0127  1803               	skipnc
  2118     0128  292A               	goto	u1211
  2119     0129  292B               	goto	u1210
  2120     012A                     u1211:
  2121     012A  292C               	goto	l1224
  2122     012B                     u1210:
  2123     012B  28F9               	goto	l1204
  2124     012C                     l1224:
  2125     012C  3001               	movlw	1
  2126     012D                     u1225:
  2127     012D  1003               	clrc
  2128     012E  0CD7               	rrf	___fltol@f1+3,f
  2129     012F  0CD6               	rrf	___fltol@f1+2,f
  2130     0130  0CD5               	rrf	___fltol@f1+1,f
  2131     0131  0CD4               	rrf	___fltol@f1,f
  2132     0132  3EFF               	addlw	-1
  2133     0133  1D03               	skipz
  2134     0134  292D               	goto	u1225
  2135     0135                     l1226:
  2136     0135  3001               	movlw	1
  2137     0136  00FF               	movwf	btemp+1
  2138     0137  087F               	movf	btemp+1,w
  2139     0138  07DD               	addwf	___fltol@exp1,f
  2140     0139  1D03               	btfss	3,2
  2141     013A  293C               	goto	u1231
  2142     013B  293D               	goto	u1230
  2143     013C                     u1231:
  2144     013C  292C               	goto	l1224
  2145     013D                     u1230:
  2146     013D  2955               	goto	l1236
  2147     013E                     l1228:
  2148     013E  3020               	movlw	32
  2149     013F  025D               	subwf	___fltol@exp1,w
  2150     0140  1C03               	skipc
  2151     0141  2943               	goto	u1241
  2152     0142  2944               	goto	u1240
  2153     0143                     u1241:
  2154     0143  2950               	goto	l361
  2155     0144                     u1240:
  2156     0144  28F9               	goto	l1204
  2157     0145                     l1234:
  2158     0145  3001               	movlw	1
  2159     0146  00D8               	movwf	??___fltol
  2160     0147                     u1255:
  2161     0147  1003               	clrc
  2162     0148  0DD4               	rlf	___fltol@f1,f
  2163     0149  0DD5               	rlf	___fltol@f1+1,f
  2164     014A  0DD6               	rlf	___fltol@f1+2,f
  2165     014B  0DD7               	rlf	___fltol@f1+3,f
  2166     014C  0BD8               	decfsz	??___fltol,f
  2167     014D  2947               	goto	u1255
  2168     014E  3001               	movlw	1
  2169     014F  02DD               	subwf	___fltol@exp1,f
  2170     0150                     l361:
  2171     0150  085D               	movf	___fltol@exp1,w
  2172     0151  1D03               	btfss	3,2
  2173     0152  2954               	goto	u1261
  2174     0153  2955               	goto	u1260
  2175     0154                     u1261:
  2176     0154  2945               	goto	l1234
  2177     0155                     u1260:
  2178     0155                     l1236:
  2179     0155  085C               	movf	___fltol@sign1,w
  2180     0156  1903               	btfsc	3,2
  2181     0157  2959               	goto	u1271
  2182     0158  295A               	goto	u1270
  2183     0159                     u1271:
  2184     0159  2965               	goto	l364
  2185     015A                     u1270:
  2186     015A                     l1238:
  2187     015A  09D4               	comf	___fltol@f1,f
  2188     015B  09D5               	comf	___fltol@f1+1,f
  2189     015C  09D6               	comf	___fltol@f1+2,f
  2190     015D  09D7               	comf	___fltol@f1+3,f
  2191     015E  0AD4               	incf	___fltol@f1,f
  2192     015F  1903               	skipnz
  2193     0160  0AD5               	incf	___fltol@f1+1,f
  2194     0161  1903               	skipnz
  2195     0162  0AD6               	incf	___fltol@f1+2,f
  2196     0163  1903               	skipnz
  2197     0164  0AD7               	incf	___fltol@f1+3,f
  2198     0165                     l364:
  2199     0165                     l354:
  2200     0165  0008               	return
  2201     0166                     __end_of___fltol:
  2202                           
  2203                           	psect	text13
  2204     04B7                     __ptext13:	
  2205 ;; *************** function ___flmul *****************
  2206 ;; Defined at:
  2207 ;;		line 8 in file "C:\Program Files\Microchip\xc8\v2.46\pic\sources\c99\common\sprcmul.c"
  2208 ;; Parameters:    Size  Location     Type
  2209 ;;  b               4   26[BANK0 ] long 
  2210 ;;  a               4   30[BANK0 ] long 
  2211 ;; Auto vars:     Size  Location     Type
  2212 ;;  prod            4   46[BANK0 ] struct .
  2213 ;;  grs             4   40[BANK0 ] unsigned long 
  2214 ;;  temp            2   50[BANK0 ] struct .
  2215 ;;  bexp            1   45[BANK0 ] unsigned char 
  2216 ;;  aexp            1   44[BANK0 ] unsigned char 
  2217 ;;  sign            1   39[BANK0 ] unsigned char 
  2218 ;; Return value:  Size  Location     Type
  2219 ;;                  4   26[BANK0 ] unsigned char 
  2220 ;; Registers used:
  2221 ;;		wreg, status,2, status,0, btemp+1, pclath, cstack
  2222 ;; Tracked objects:
  2223 ;;		On entry : 0/0
  2224 ;;		On exit  : 0/0
  2225 ;;		Unchanged: 0/0
  2226 ;; Data sizes:     COMMON   BANK0   BANK1   BANK3   BANK2
  2227 ;;      Params:         0       8       0       0       0
  2228 ;;      Locals:         0      13       0       0       0
  2229 ;;      Temps:          0       5       0       0       0
  2230 ;;      Totals:         0      26       0       0       0
  2231 ;;Total ram usage:       26 bytes
  2232 ;; Hardware stack levels used: 1
  2233 ;; Hardware stack levels required when called: 1
  2234 ;; This function calls:
  2235 ;;		__Umul8_16
  2236 ;; This function is called by:
  2237 ;;		_main
  2238 ;; This function uses a non-reentrant model
  2239 ;;
  2240                           
  2241     04B7                     ___flmul:	
  2242                           ;psect for function ___flmul
  2243                           
  2244     04B7                     l1434:	
  2245                           ;incstack = 0
  2246                           ; Regs used in ___flmul: [wreg+status,2+status,0+btemp+1+pclath+cstack]
  2247                           
  2248     04B7  1283               	bcf	3,5	;RP0=0, select bank0
  2249     04B8  1303               	bcf	3,6	;RP1=0, select bank0
  2250     04B9  083D               	movf	___flmul@b+3,w
  2251     04BA  3980               	andlw	128
  2252     04BB  00C7               	movwf	___flmul@sign
  2253     04BC                     l1436:
  2254     04BC  083D               	movf	___flmul@b+3,w
  2255     04BD  00C2               	movwf	??___flmul
  2256     04BE  0742               	addwf	??___flmul,w
  2257     04BF  00CD               	movwf	___flmul@bexp
  2258     04C0                     l1438:
  2259     04C0  1FBC               	btfss	___flmul@b+2,7
  2260     04C1  2CC3               	goto	u1701
  2261     04C2  2CC4               	goto	u1700
  2262     04C3                     u1701:
  2263     04C3  2CC5               	goto	l1442
  2264     04C4                     u1700:
  2265     04C4                     l1440:
  2266     04C4  144D               	bsf	___flmul@bexp,0
  2267     04C5                     l1442:
  2268     04C5  084D               	movf	___flmul@bexp,w
  2269     04C6  1903               	btfsc	3,2
  2270     04C7  2CC9               	goto	u1711
  2271     04C8  2CCA               	goto	u1710
  2272     04C9                     u1711:
  2273     04C9  2CD9               	goto	l1450
  2274     04CA                     u1710:
  2275     04CA                     l1444:
  2276     04CA  0A4D               	incf	___flmul@bexp,w
  2277     04CB  1D03               	btfss	3,2
  2278     04CC  2CCE               	goto	u1721
  2279     04CD  2CCF               	goto	u1720
  2280     04CE                     u1721:
  2281     04CE  2CD7               	goto	l1448
  2282     04CF                     u1720:
  2283     04CF                     l1446:
  2284     04CF  3000               	movlw	0
  2285     04D0  00BD               	movwf	___flmul@b+3
  2286     04D1  3000               	movlw	0
  2287     04D2  00BC               	movwf	___flmul@b+2
  2288     04D3  3000               	movlw	0
  2289     04D4  00BB               	movwf	___flmul@b+1
  2290     04D5  3000               	movlw	0
  2291     04D6  00BA               	movwf	___flmul@b
  2292     04D7                     l1448:
  2293     04D7  17BC               	bsf	___flmul@b+2,7
  2294     04D8  2CE1               	goto	l1452
  2295     04D9                     l1450:
  2296     04D9  3000               	movlw	0
  2297     04DA  00BD               	movwf	___flmul@b+3
  2298     04DB  3000               	movlw	0
  2299     04DC  00BC               	movwf	___flmul@b+2
  2300     04DD  3000               	movlw	0
  2301     04DE  00BB               	movwf	___flmul@b+1
  2302     04DF  3000               	movlw	0
  2303     04E0  00BA               	movwf	___flmul@b
  2304     04E1                     l1452:
  2305     04E1  0841               	movf	___flmul@a+3,w
  2306     04E2  3980               	andlw	128
  2307     04E3  00FF               	movwf	btemp+1
  2308     04E4  087F               	movf	btemp+1,w
  2309     04E5  06C7               	xorwf	___flmul@sign,f
  2310     04E6                     l1454:
  2311     04E6  0841               	movf	___flmul@a+3,w
  2312     04E7  00C2               	movwf	??___flmul
  2313     04E8  0742               	addwf	??___flmul,w
  2314     04E9  00CC               	movwf	___flmul@aexp
  2315     04EA                     l1456:
  2316     04EA  1FC0               	btfss	___flmul@a+2,7
  2317     04EB  2CED               	goto	u1731
  2318     04EC  2CEE               	goto	u1730
  2319     04ED                     u1731:
  2320     04ED  2CEF               	goto	l1460
  2321     04EE                     u1730:
  2322     04EE                     l1458:
  2323     04EE  144C               	bsf	___flmul@aexp,0
  2324     04EF                     l1460:
  2325     04EF  084C               	movf	___flmul@aexp,w
  2326     04F0  1903               	btfsc	3,2
  2327     04F1  2CF3               	goto	u1741
  2328     04F2  2CF4               	goto	u1740
  2329     04F3                     u1741:
  2330     04F3  2D03               	goto	l1468
  2331     04F4                     u1740:
  2332     04F4                     l1462:
  2333     04F4  0A4C               	incf	___flmul@aexp,w
  2334     04F5  1D03               	btfss	3,2
  2335     04F6  2CF8               	goto	u1751
  2336     04F7  2CF9               	goto	u1750
  2337     04F8                     u1751:
  2338     04F8  2D01               	goto	l1466
  2339     04F9                     u1750:
  2340     04F9                     l1464:
  2341     04F9  3000               	movlw	0
  2342     04FA  00C1               	movwf	___flmul@a+3
  2343     04FB  3000               	movlw	0
  2344     04FC  00C0               	movwf	___flmul@a+2
  2345     04FD  3000               	movlw	0
  2346     04FE  00BF               	movwf	___flmul@a+1
  2347     04FF  3000               	movlw	0
  2348     0500  00BE               	movwf	___flmul@a
  2349     0501                     l1466:
  2350     0501  17C0               	bsf	___flmul@a+2,7
  2351     0502  2D0B               	goto	l1470
  2352     0503                     l1468:
  2353     0503  3000               	movlw	0
  2354     0504  00C1               	movwf	___flmul@a+3
  2355     0505  3000               	movlw	0
  2356     0506  00C0               	movwf	___flmul@a+2
  2357     0507  3000               	movlw	0
  2358     0508  00BF               	movwf	___flmul@a+1
  2359     0509  3000               	movlw	0
  2360     050A  00BE               	movwf	___flmul@a
  2361     050B                     l1470:
  2362     050B  084C               	movf	___flmul@aexp,w
  2363     050C  1903               	btfsc	3,2
  2364     050D  2D0F               	goto	u1761
  2365     050E  2D10               	goto	u1760
  2366     050F                     u1761:
  2367     050F  2D15               	goto	l1474
  2368     0510                     u1760:
  2369     0510                     l1472:
  2370     0510  084D               	movf	___flmul@bexp,w
  2371     0511  1D03               	btfss	3,2
  2372     0512  2D14               	goto	u1771
  2373     0513  2D15               	goto	u1770
  2374     0514                     u1771:
  2375     0514  2D1E               	goto	l1478
  2376     0515                     u1770:
  2377     0515                     l1474:
  2378     0515  3000               	movlw	0
  2379     0516  00BD               	movwf	?___flmul+3
  2380     0517  3000               	movlw	0
  2381     0518  00BC               	movwf	?___flmul+2
  2382     0519  3000               	movlw	0
  2383     051A  00BB               	movwf	?___flmul+1
  2384     051B  3000               	movlw	0
  2385     051C  00BA               	movwf	?___flmul
  2386     051D  2FFB               	goto	l557
  2387     051E                     l1478:
  2388     051E  083A               	movf	___flmul@b,w
  2389     051F  00F0               	movwf	__Umul8_16@multiplicand
  2390     0520  0840               	movf	___flmul@a+2,w
  2391     0521  120A  158A  27B1  120A  118A  	fcall	__Umul8_16
  2392     0526  0871               	movf	?__Umul8_16+1,w
  2393     0527  1283               	bcf	3,5	;RP0=0, select bank0
  2394     0528  1303               	bcf	3,6	;RP1=0, select bank0
  2395     0529  00D3               	movwf	___flmul@temp+1
  2396     052A  0870               	movf	?__Umul8_16,w
  2397     052B  00D2               	movwf	___flmul@temp
  2398     052C                     l1480:
  2399     052C  0852               	movf	___flmul@temp,w
  2400     052D  00C2               	movwf	??___flmul
  2401     052E  01C3               	clrf	??___flmul+1
  2402     052F  01C4               	clrf	??___flmul+2
  2403     0530  01C5               	clrf	??___flmul+3
  2404     0531  0845               	movf	??___flmul+3,w
  2405     0532  00CB               	movwf	___flmul@grs+3
  2406     0533  0844               	movf	??___flmul+2,w
  2407     0534  00CA               	movwf	___flmul@grs+2
  2408     0535  0843               	movf	??___flmul+1,w
  2409     0536  00C9               	movwf	___flmul@grs+1
  2410     0537  0842               	movf	??___flmul,w
  2411     0538  00C8               	movwf	___flmul@grs
  2412     0539                     l1482:
  2413     0539  0853               	movf	___flmul@temp+1,w
  2414     053A  00C2               	movwf	??___flmul
  2415     053B  01C3               	clrf	??___flmul+1
  2416     053C  01C4               	clrf	??___flmul+2
  2417     053D  01C5               	clrf	??___flmul+3
  2418     053E  0845               	movf	??___flmul+3,w
  2419     053F  00D1               	movwf	___flmul@prod+3
  2420     0540  0844               	movf	??___flmul+2,w
  2421     0541  00D0               	movwf	___flmul@prod+2
  2422     0542  0843               	movf	??___flmul+1,w
  2423     0543  00CF               	movwf	___flmul@prod+1
  2424     0544  0842               	movf	??___flmul,w
  2425     0545  00CE               	movwf	___flmul@prod
  2426     0546  083B               	movf	___flmul@b+1,w
  2427     0547  00F0               	movwf	__Umul8_16@multiplicand
  2428     0548  083F               	movf	___flmul@a+1,w
  2429     0549  120A  158A  27B1  120A  118A  	fcall	__Umul8_16
  2430     054E  0871               	movf	?__Umul8_16+1,w
  2431     054F  1283               	bcf	3,5	;RP0=0, select bank0
  2432     0550  1303               	bcf	3,6	;RP1=0, select bank0
  2433     0551  00D3               	movwf	___flmul@temp+1
  2434     0552  0870               	movf	?__Umul8_16,w
  2435     0553  00D2               	movwf	___flmul@temp
  2436     0554                     l1484:
  2437     0554  0852               	movf	___flmul@temp,w
  2438     0555  00C2               	movwf	??___flmul
  2439     0556  01C3               	clrf	??___flmul+1
  2440     0557  01C4               	clrf	??___flmul+2
  2441     0558  01C5               	clrf	??___flmul+3
  2442     0559  0842               	movf	??___flmul,w
  2443     055A  07C8               	addwf	___flmul@grs,f
  2444     055B  0843               	movf	??___flmul+1,w
  2445     055C  1103               	clrz
  2446     055D  1803               	skipnc
  2447     055E  3E01               	addlw	1
  2448     055F  1903               	skipnz
  2449     0560  2D62               	goto	u1781
  2450     0561  07C9               	addwf	___flmul@grs+1,f
  2451     0562                     u1781:
  2452     0562  0844               	movf	??___flmul+2,w
  2453     0563  1103               	clrz
  2454     0564  1803               	skipnc
  2455     0565  3E01               	addlw	1
  2456     0566  1903               	skipnz
  2457     0567  2D69               	goto	u1782
  2458     0568  07CA               	addwf	___flmul@grs+2,f
  2459     0569                     u1782:
  2460     0569  0845               	movf	??___flmul+3,w
  2461     056A  1103               	clrz
  2462     056B  1803               	skipnc
  2463     056C  3E01               	addlw	1
  2464     056D  1903               	skipnz
  2465     056E  2D70               	goto	u1783
  2466     056F  07CB               	addwf	___flmul@grs+3,f
  2467     0570                     u1783:
  2468     0570                     l1486:
  2469     0570  0853               	movf	___flmul@temp+1,w
  2470     0571  00C2               	movwf	??___flmul
  2471     0572  01C3               	clrf	??___flmul+1
  2472     0573  01C4               	clrf	??___flmul+2
  2473     0574  01C5               	clrf	??___flmul+3
  2474     0575  0842               	movf	??___flmul,w
  2475     0576  07CE               	addwf	___flmul@prod,f
  2476     0577  0843               	movf	??___flmul+1,w
  2477     0578  1103               	clrz
  2478     0579  1803               	skipnc
  2479     057A  3E01               	addlw	1
  2480     057B  1903               	skipnz
  2481     057C  2D7E               	goto	u1791
  2482     057D  07CF               	addwf	___flmul@prod+1,f
  2483     057E                     u1791:
  2484     057E  0844               	movf	??___flmul+2,w
  2485     057F  1103               	clrz
  2486     0580  1803               	skipnc
  2487     0581  3E01               	addlw	1
  2488     0582  1903               	skipnz
  2489     0583  2D85               	goto	u1792
  2490     0584  07D0               	addwf	___flmul@prod+2,f
  2491     0585                     u1792:
  2492     0585  0845               	movf	??___flmul+3,w
  2493     0586  1103               	clrz
  2494     0587  1803               	skipnc
  2495     0588  3E01               	addlw	1
  2496     0589  1903               	skipnz
  2497     058A  2D8C               	goto	u1793
  2498     058B  07D1               	addwf	___flmul@prod+3,f
  2499     058C                     u1793:
  2500     058C  083C               	movf	___flmul@b+2,w
  2501     058D  00F0               	movwf	__Umul8_16@multiplicand
  2502     058E  083E               	movf	___flmul@a,w
  2503     058F  120A  158A  27B1  120A  118A  	fcall	__Umul8_16
  2504     0594  0871               	movf	?__Umul8_16+1,w
  2505     0595  1283               	bcf	3,5	;RP0=0, select bank0
  2506     0596  1303               	bcf	3,6	;RP1=0, select bank0
  2507     0597  00D3               	movwf	___flmul@temp+1
  2508     0598  0870               	movf	?__Umul8_16,w
  2509     0599  00D2               	movwf	___flmul@temp
  2510     059A                     l1488:
  2511     059A  0852               	movf	___flmul@temp,w
  2512     059B  00C2               	movwf	??___flmul
  2513     059C  01C3               	clrf	??___flmul+1
  2514     059D  01C4               	clrf	??___flmul+2
  2515     059E  01C5               	clrf	??___flmul+3
  2516     059F  0842               	movf	??___flmul,w
  2517     05A0  07C8               	addwf	___flmul@grs,f
  2518     05A1  0843               	movf	??___flmul+1,w
  2519     05A2  1103               	clrz
  2520     05A3  1803               	skipnc
  2521     05A4  3E01               	addlw	1
  2522     05A5  1903               	skipnz
  2523     05A6  2DA8               	goto	u1801
  2524     05A7  07C9               	addwf	___flmul@grs+1,f
  2525     05A8                     u1801:
  2526     05A8  0844               	movf	??___flmul+2,w
  2527     05A9  1103               	clrz
  2528     05AA  1803               	skipnc
  2529     05AB  3E01               	addlw	1
  2530     05AC  1903               	skipnz
  2531     05AD  2DAF               	goto	u1802
  2532     05AE  07CA               	addwf	___flmul@grs+2,f
  2533     05AF                     u1802:
  2534     05AF  0845               	movf	??___flmul+3,w
  2535     05B0  1103               	clrz
  2536     05B1  1803               	skipnc
  2537     05B2  3E01               	addlw	1
  2538     05B3  1903               	skipnz
  2539     05B4  2DB6               	goto	u1803
  2540     05B5  07CB               	addwf	___flmul@grs+3,f
  2541     05B6                     u1803:
  2542     05B6                     l1490:
  2543     05B6  0853               	movf	___flmul@temp+1,w
  2544     05B7  00C2               	movwf	??___flmul
  2545     05B8  01C3               	clrf	??___flmul+1
  2546     05B9  01C4               	clrf	??___flmul+2
  2547     05BA  01C5               	clrf	??___flmul+3
  2548     05BB  0842               	movf	??___flmul,w
  2549     05BC  07CE               	addwf	___flmul@prod,f
  2550     05BD  0843               	movf	??___flmul+1,w
  2551     05BE  1103               	clrz
  2552     05BF  1803               	skipnc
  2553     05C0  3E01               	addlw	1
  2554     05C1  1903               	skipnz
  2555     05C2  2DC4               	goto	u1811
  2556     05C3  07CF               	addwf	___flmul@prod+1,f
  2557     05C4                     u1811:
  2558     05C4  0844               	movf	??___flmul+2,w
  2559     05C5  1103               	clrz
  2560     05C6  1803               	skipnc
  2561     05C7  3E01               	addlw	1
  2562     05C8  1903               	skipnz
  2563     05C9  2DCB               	goto	u1812
  2564     05CA  07D0               	addwf	___flmul@prod+2,f
  2565     05CB                     u1812:
  2566     05CB  0845               	movf	??___flmul+3,w
  2567     05CC  1103               	clrz
  2568     05CD  1803               	skipnc
  2569     05CE  3E01               	addlw	1
  2570     05CF  1903               	skipnz
  2571     05D0  2DD2               	goto	u1813
  2572     05D1  07D1               	addwf	___flmul@prod+3,f
  2573     05D2                     u1813:
  2574     05D2                     l1492:
  2575     05D2  3008               	movlw	8
  2576     05D3  00C2               	movwf	??___flmul
  2577     05D4                     u1825:
  2578     05D4  1003               	clrc
  2579     05D5  0DC8               	rlf	___flmul@grs,f
  2580     05D6  0DC9               	rlf	___flmul@grs+1,f
  2581     05D7  0DCA               	rlf	___flmul@grs+2,f
  2582     05D8  0DCB               	rlf	___flmul@grs+3,f
  2583     05D9  0BC2               	decfsz	??___flmul,f
  2584     05DA  2DD4               	goto	u1825
  2585     05DB                     l1494:
  2586     05DB  083B               	movf	___flmul@b+1,w
  2587     05DC  00F0               	movwf	__Umul8_16@multiplicand
  2588     05DD  083E               	movf	___flmul@a,w
  2589     05DE  120A  158A  27B1  120A  118A  	fcall	__Umul8_16
  2590     05E3  0871               	movf	?__Umul8_16+1,w
  2591     05E4  1283               	bcf	3,5	;RP0=0, select bank0
  2592     05E5  1303               	bcf	3,6	;RP1=0, select bank0
  2593     05E6  00D3               	movwf	___flmul@temp+1
  2594     05E7  0870               	movf	?__Umul8_16,w
  2595     05E8  00D2               	movwf	___flmul@temp
  2596     05E9                     l1496:
  2597     05E9  0852               	movf	___flmul@temp,w
  2598     05EA  00C2               	movwf	??___flmul
  2599     05EB  0853               	movf	___flmul@temp+1,w
  2600     05EC  00C3               	movwf	??___flmul+1
  2601     05ED  01C4               	clrf	??___flmul+2
  2602     05EE  01C5               	clrf	??___flmul+3
  2603     05EF  0842               	movf	??___flmul,w
  2604     05F0  07C8               	addwf	___flmul@grs,f
  2605     05F1  0843               	movf	??___flmul+1,w
  2606     05F2  1103               	clrz
  2607     05F3  1803               	skipnc
  2608     05F4  3E01               	addlw	1
  2609     05F5  1903               	skipnz
  2610     05F6  2DF8               	goto	u1831
  2611     05F7  07C9               	addwf	___flmul@grs+1,f
  2612     05F8                     u1831:
  2613     05F8  0844               	movf	??___flmul+2,w
  2614     05F9  1103               	clrz
  2615     05FA  1803               	skipnc
  2616     05FB  3E01               	addlw	1
  2617     05FC  1903               	skipnz
  2618     05FD  2DFF               	goto	u1832
  2619     05FE  07CA               	addwf	___flmul@grs+2,f
  2620     05FF                     u1832:
  2621     05FF  0845               	movf	??___flmul+3,w
  2622     0600  1103               	clrz
  2623     0601  1803               	skipnc
  2624     0602  3E01               	addlw	1
  2625     0603  1903               	skipnz
  2626     0604  2E06               	goto	u1833
  2627     0605  07CB               	addwf	___flmul@grs+3,f
  2628     0606                     u1833:
  2629     0606                     l1498:
  2630     0606  083A               	movf	___flmul@b,w
  2631     0607  00F0               	movwf	__Umul8_16@multiplicand
  2632     0608  083F               	movf	___flmul@a+1,w
  2633     0609  120A  158A  27B1  120A  118A  	fcall	__Umul8_16
  2634     060E  0871               	movf	?__Umul8_16+1,w
  2635     060F  1283               	bcf	3,5	;RP0=0, select bank0
  2636     0610  1303               	bcf	3,6	;RP1=0, select bank0
  2637     0611  00D3               	movwf	___flmul@temp+1
  2638     0612  0870               	movf	?__Umul8_16,w
  2639     0613  00D2               	movwf	___flmul@temp
  2640     0614                     l1500:
  2641     0614  0852               	movf	___flmul@temp,w
  2642     0615  00C2               	movwf	??___flmul
  2643     0616  0853               	movf	___flmul@temp+1,w
  2644     0617  00C3               	movwf	??___flmul+1
  2645     0618  01C4               	clrf	??___flmul+2
  2646     0619  01C5               	clrf	??___flmul+3
  2647     061A  0842               	movf	??___flmul,w
  2648     061B  07C8               	addwf	___flmul@grs,f
  2649     061C  0843               	movf	??___flmul+1,w
  2650     061D  1103               	clrz
  2651     061E  1803               	skipnc
  2652     061F  3E01               	addlw	1
  2653     0620  1903               	skipnz
  2654     0621  2E23               	goto	u1841
  2655     0622  07C9               	addwf	___flmul@grs+1,f
  2656     0623                     u1841:
  2657     0623  0844               	movf	??___flmul+2,w
  2658     0624  1103               	clrz
  2659     0625  1803               	skipnc
  2660     0626  3E01               	addlw	1
  2661     0627  1903               	skipnz
  2662     0628  2E2A               	goto	u1842
  2663     0629  07CA               	addwf	___flmul@grs+2,f
  2664     062A                     u1842:
  2665     062A  0845               	movf	??___flmul+3,w
  2666     062B  1103               	clrz
  2667     062C  1803               	skipnc
  2668     062D  3E01               	addlw	1
  2669     062E  1903               	skipnz
  2670     062F  2E31               	goto	u1843
  2671     0630  07CB               	addwf	___flmul@grs+3,f
  2672     0631                     u1843:
  2673     0631                     l1502:
  2674     0631  3008               	movlw	8
  2675     0632  00C2               	movwf	??___flmul
  2676     0633                     u1855:
  2677     0633  1003               	clrc
  2678     0634  0DC8               	rlf	___flmul@grs,f
  2679     0635  0DC9               	rlf	___flmul@grs+1,f
  2680     0636  0DCA               	rlf	___flmul@grs+2,f
  2681     0637  0DCB               	rlf	___flmul@grs+3,f
  2682     0638  0BC2               	decfsz	??___flmul,f
  2683     0639  2E33               	goto	u1855
  2684     063A  083A               	movf	___flmul@b,w
  2685     063B  00F0               	movwf	__Umul8_16@multiplicand
  2686     063C  083E               	movf	___flmul@a,w
  2687     063D  120A  158A  27B1  120A  118A  	fcall	__Umul8_16
  2688     0642  0871               	movf	?__Umul8_16+1,w
  2689     0643  1283               	bcf	3,5	;RP0=0, select bank0
  2690     0644  1303               	bcf	3,6	;RP1=0, select bank0
  2691     0645  00D3               	movwf	___flmul@temp+1
  2692     0646  0870               	movf	?__Umul8_16,w
  2693     0647  00D2               	movwf	___flmul@temp
  2694     0648                     l1504:
  2695     0648  0852               	movf	___flmul@temp,w
  2696     0649  00C2               	movwf	??___flmul
  2697     064A  0853               	movf	___flmul@temp+1,w
  2698     064B  00C3               	movwf	??___flmul+1
  2699     064C  01C4               	clrf	??___flmul+2
  2700     064D  01C5               	clrf	??___flmul+3
  2701     064E  0842               	movf	??___flmul,w
  2702     064F  07C8               	addwf	___flmul@grs,f
  2703     0650  0843               	movf	??___flmul+1,w
  2704     0651  1103               	clrz
  2705     0652  1803               	skipnc
  2706     0653  3E01               	addlw	1
  2707     0654  1903               	skipnz
  2708     0655  2E57               	goto	u1861
  2709     0656  07C9               	addwf	___flmul@grs+1,f
  2710     0657                     u1861:
  2711     0657  0844               	movf	??___flmul+2,w
  2712     0658  1103               	clrz
  2713     0659  1803               	skipnc
  2714     065A  3E01               	addlw	1
  2715     065B  1903               	skipnz
  2716     065C  2E5E               	goto	u1862
  2717     065D  07CA               	addwf	___flmul@grs+2,f
  2718     065E                     u1862:
  2719     065E  0845               	movf	??___flmul+3,w
  2720     065F  1103               	clrz
  2721     0660  1803               	skipnc
  2722     0661  3E01               	addlw	1
  2723     0662  1903               	skipnz
  2724     0663  2E65               	goto	u1863
  2725     0664  07CB               	addwf	___flmul@grs+3,f
  2726     0665                     u1863:
  2727     0665                     l1506:
  2728     0665  083B               	movf	___flmul@b+1,w
  2729     0666  00F0               	movwf	__Umul8_16@multiplicand
  2730     0667  0840               	movf	___flmul@a+2,w
  2731     0668  120A  158A  27B1  120A  118A  	fcall	__Umul8_16
  2732     066D  0871               	movf	?__Umul8_16+1,w
  2733     066E  1283               	bcf	3,5	;RP0=0, select bank0
  2734     066F  1303               	bcf	3,6	;RP1=0, select bank0
  2735     0670  00D3               	movwf	___flmul@temp+1
  2736     0671  0870               	movf	?__Umul8_16,w
  2737     0672  00D2               	movwf	___flmul@temp
  2738     0673  0852               	movf	___flmul@temp,w
  2739     0674  00C2               	movwf	??___flmul
  2740     0675  0853               	movf	___flmul@temp+1,w
  2741     0676  00C3               	movwf	??___flmul+1
  2742     0677  01C4               	clrf	??___flmul+2
  2743     0678  01C5               	clrf	??___flmul+3
  2744     0679  0842               	movf	??___flmul,w
  2745     067A  07CE               	addwf	___flmul@prod,f
  2746     067B  0843               	movf	??___flmul+1,w
  2747     067C  1103               	clrz
  2748     067D  1803               	skipnc
  2749     067E  3E01               	addlw	1
  2750     067F  1903               	skipnz
  2751     0680  2E82               	goto	u1871
  2752     0681  07CF               	addwf	___flmul@prod+1,f
  2753     0682                     u1871:
  2754     0682  0844               	movf	??___flmul+2,w
  2755     0683  1103               	clrz
  2756     0684  1803               	skipnc
  2757     0685  3E01               	addlw	1
  2758     0686  1903               	skipnz
  2759     0687  2E89               	goto	u1872
  2760     0688  07D0               	addwf	___flmul@prod+2,f
  2761     0689                     u1872:
  2762     0689  0845               	movf	??___flmul+3,w
  2763     068A  1103               	clrz
  2764     068B  1803               	skipnc
  2765     068C  3E01               	addlw	1
  2766     068D  1903               	skipnz
  2767     068E  2E90               	goto	u1873
  2768     068F  07D1               	addwf	___flmul@prod+3,f
  2769     0690                     u1873:
  2770     0690                     l1508:
  2771     0690  083C               	movf	___flmul@b+2,w
  2772     0691  00F0               	movwf	__Umul8_16@multiplicand
  2773     0692  083F               	movf	___flmul@a+1,w
  2774     0693  120A  158A  27B1  120A  118A  	fcall	__Umul8_16
  2775     0698  0871               	movf	?__Umul8_16+1,w
  2776     0699  1283               	bcf	3,5	;RP0=0, select bank0
  2777     069A  1303               	bcf	3,6	;RP1=0, select bank0
  2778     069B  00D3               	movwf	___flmul@temp+1
  2779     069C  0870               	movf	?__Umul8_16,w
  2780     069D  00D2               	movwf	___flmul@temp
  2781     069E                     l1510:
  2782     069E  0852               	movf	___flmul@temp,w
  2783     069F  00C2               	movwf	??___flmul
  2784     06A0  0853               	movf	___flmul@temp+1,w
  2785     06A1  00C3               	movwf	??___flmul+1
  2786     06A2  01C4               	clrf	??___flmul+2
  2787     06A3  01C5               	clrf	??___flmul+3
  2788     06A4  0842               	movf	??___flmul,w
  2789     06A5  07CE               	addwf	___flmul@prod,f
  2790     06A6  0843               	movf	??___flmul+1,w
  2791     06A7  1103               	clrz
  2792     06A8  1803               	skipnc
  2793     06A9  3E01               	addlw	1
  2794     06AA  1903               	skipnz
  2795     06AB  2EAD               	goto	u1881
  2796     06AC  07CF               	addwf	___flmul@prod+1,f
  2797     06AD                     u1881:
  2798     06AD  0844               	movf	??___flmul+2,w
  2799     06AE  1103               	clrz
  2800     06AF  1803               	skipnc
  2801     06B0  3E01               	addlw	1
  2802     06B1  1903               	skipnz
  2803     06B2  2EB4               	goto	u1882
  2804     06B3  07D0               	addwf	___flmul@prod+2,f
  2805     06B4                     u1882:
  2806     06B4  0845               	movf	??___flmul+3,w
  2807     06B5  1103               	clrz
  2808     06B6  1803               	skipnc
  2809     06B7  3E01               	addlw	1
  2810     06B8  1903               	skipnz
  2811     06B9  2EBB               	goto	u1883
  2812     06BA  07D1               	addwf	___flmul@prod+3,f
  2813     06BB                     u1883:
  2814     06BB  083C               	movf	___flmul@b+2,w
  2815     06BC  00F0               	movwf	__Umul8_16@multiplicand
  2816     06BD  0840               	movf	___flmul@a+2,w
  2817     06BE  120A  158A  27B1  120A  118A  	fcall	__Umul8_16
  2818     06C3  0871               	movf	?__Umul8_16+1,w
  2819     06C4  1283               	bcf	3,5	;RP0=0, select bank0
  2820     06C5  1303               	bcf	3,6	;RP1=0, select bank0
  2821     06C6  00D3               	movwf	___flmul@temp+1
  2822     06C7  0870               	movf	?__Umul8_16,w
  2823     06C8  00D2               	movwf	___flmul@temp
  2824     06C9                     l1512:
  2825     06C9  0852               	movf	___flmul@temp,w
  2826     06CA  00C2               	movwf	??___flmul
  2827     06CB  0853               	movf	___flmul@temp+1,w
  2828     06CC  00C3               	movwf	??___flmul+1
  2829     06CD  01C4               	clrf	??___flmul+2
  2830     06CE  01C5               	clrf	??___flmul+3
  2831     06CF  3008               	movlw	8
  2832     06D0                     u1895:
  2833     06D0  1003               	clrc
  2834     06D1  0DC2               	rlf	??___flmul,f
  2835     06D2  0DC3               	rlf	??___flmul+1,f
  2836     06D3  0DC4               	rlf	??___flmul+2,f
  2837     06D4  0DC5               	rlf	??___flmul+3,f
  2838     06D5                     u1890:
  2839     06D5  3EFF               	addlw	-1
  2840     06D6  1D03               	skipz
  2841     06D7  2ED0               	goto	u1895
  2842     06D8  0842               	movf	??___flmul,w
  2843     06D9  07CE               	addwf	___flmul@prod,f
  2844     06DA  0843               	movf	??___flmul+1,w
  2845     06DB  1103               	clrz
  2846     06DC  1803               	skipnc
  2847     06DD  3E01               	addlw	1
  2848     06DE  1903               	skipnz
  2849     06DF  2EE1               	goto	u1901
  2850     06E0  07CF               	addwf	___flmul@prod+1,f
  2851     06E1                     u1901:
  2852     06E1  0844               	movf	??___flmul+2,w
  2853     06E2  1103               	clrz
  2854     06E3  1803               	skipnc
  2855     06E4  3E01               	addlw	1
  2856     06E5  1903               	skipnz
  2857     06E6  2EE8               	goto	u1902
  2858     06E7  07D0               	addwf	___flmul@prod+2,f
  2859     06E8                     u1902:
  2860     06E8  0845               	movf	??___flmul+3,w
  2861     06E9  1103               	clrz
  2862     06EA  1803               	skipnc
  2863     06EB  3E01               	addlw	1
  2864     06EC  1903               	skipnz
  2865     06ED  2EEF               	goto	u1903
  2866     06EE  07D1               	addwf	___flmul@prod+3,f
  2867     06EF                     u1903:
  2868     06EF                     l1514:
  2869     06EF  0848               	movf	___flmul@grs,w
  2870     06F0  00C2               	movwf	??___flmul
  2871     06F1  0849               	movf	___flmul@grs+1,w
  2872     06F2  00C3               	movwf	??___flmul+1
  2873     06F3  084A               	movf	___flmul@grs+2,w
  2874     06F4  00C4               	movwf	??___flmul+2
  2875     06F5  084B               	movf	___flmul@grs+3,w
  2876     06F6  00C5               	movwf	??___flmul+3
  2877     06F7  3018               	movlw	24
  2878     06F8                     u1915:
  2879     06F8  1003               	clrc
  2880     06F9  0CC5               	rrf	??___flmul+3,f
  2881     06FA  0CC4               	rrf	??___flmul+2,f
  2882     06FB  0CC3               	rrf	??___flmul+1,f
  2883     06FC  0CC2               	rrf	??___flmul,f
  2884     06FD                     u1910:
  2885     06FD  3EFF               	addlw	-1
  2886     06FE  1D03               	skipz
  2887     06FF  2EF8               	goto	u1915
  2888     0700  0842               	movf	??___flmul,w
  2889     0701  07CE               	addwf	___flmul@prod,f
  2890     0702  0843               	movf	??___flmul+1,w
  2891     0703  1103               	clrz
  2892     0704  1803               	skipnc
  2893     0705  3E01               	addlw	1
  2894     0706  1903               	skipnz
  2895     0707  2F09               	goto	u1921
  2896     0708  07CF               	addwf	___flmul@prod+1,f
  2897     0709                     u1921:
  2898     0709  0844               	movf	??___flmul+2,w
  2899     070A  1103               	clrz
  2900     070B  1803               	skipnc
  2901     070C  3E01               	addlw	1
  2902     070D  1903               	skipnz
  2903     070E  2F10               	goto	u1922
  2904     070F  07D0               	addwf	___flmul@prod+2,f
  2905     0710                     u1922:
  2906     0710  0845               	movf	??___flmul+3,w
  2907     0711  1103               	clrz
  2908     0712  1803               	skipnc
  2909     0713  3E01               	addlw	1
  2910     0714  1903               	skipnz
  2911     0715  2F17               	goto	u1923
  2912     0716  07D1               	addwf	___flmul@prod+3,f
  2913     0717                     u1923:
  2914     0717                     l1516:
  2915     0717  3008               	movlw	8
  2916     0718  00C2               	movwf	??___flmul
  2917     0719                     u1935:
  2918     0719  1003               	clrc
  2919     071A  0DC8               	rlf	___flmul@grs,f
  2920     071B  0DC9               	rlf	___flmul@grs+1,f
  2921     071C  0DCA               	rlf	___flmul@grs+2,f
  2922     071D  0DCB               	rlf	___flmul@grs+3,f
  2923     071E  0BC2               	decfsz	??___flmul,f
  2924     071F  2F19               	goto	u1935
  2925     0720                     l1518:
  2926     0720  084D               	movf	___flmul@bexp,w
  2927     0721  074C               	addwf	___flmul@aexp,w
  2928     0722  00C2               	movwf	??___flmul
  2929     0723  01C3               	clrf	??___flmul+1
  2930     0724  0DC3               	rlf	??___flmul+1,f
  2931     0725  0842               	movf	??___flmul,w
  2932     0726  3E82               	addlw	130
  2933     0727  00D2               	movwf	___flmul@temp
  2934     0728  0843               	movf	??___flmul+1,w
  2935     0729  1803               	skipnc
  2936     072A  3E01               	addlw	1
  2937     072B  3EFF               	addlw	255
  2938     072C  00D3               	movwf	___flmul@temp+1
  2939     072D  2F4B               	goto	l1530
  2940     072E                     l1520:
  2941     072E  3001               	movlw	1
  2942     072F  00C2               	movwf	??___flmul
  2943     0730                     u1945:
  2944     0730  1003               	clrc
  2945     0731  0DCE               	rlf	___flmul@prod,f
  2946     0732  0DCF               	rlf	___flmul@prod+1,f
  2947     0733  0DD0               	rlf	___flmul@prod+2,f
  2948     0734  0DD1               	rlf	___flmul@prod+3,f
  2949     0735  0BC2               	decfsz	??___flmul,f
  2950     0736  2F30               	goto	u1945
  2951     0737                     l1522:
  2952     0737  1FCB               	btfss	___flmul@grs+3,7
  2953     0738  2F3A               	goto	u1951
  2954     0739  2F3B               	goto	u1950
  2955     073A                     u1951:
  2956     073A  2F3C               	goto	l1526
  2957     073B                     u1950:
  2958     073B                     l1524:
  2959     073B  144E               	bsf	___flmul@prod,0
  2960     073C                     l1526:
  2961     073C  3001               	movlw	1
  2962     073D  00C2               	movwf	??___flmul
  2963     073E                     u1965:
  2964     073E  1003               	clrc
  2965     073F  0DC8               	rlf	___flmul@grs,f
  2966     0740  0DC9               	rlf	___flmul@grs+1,f
  2967     0741  0DCA               	rlf	___flmul@grs+2,f
  2968     0742  0DCB               	rlf	___flmul@grs+3,f
  2969     0743  0BC2               	decfsz	??___flmul,f
  2970     0744  2F3E               	goto	u1965
  2971     0745                     l1528:
  2972     0745  30FF               	movlw	255
  2973     0746  07D2               	addwf	___flmul@temp,f
  2974     0747  1803               	skipnc
  2975     0748  0AD3               	incf	___flmul@temp+1,f
  2976     0749  30FF               	movlw	255
  2977     074A  07D3               	addwf	___flmul@temp+1,f
  2978     074B                     l1530:
  2979     074B  1FD0               	btfss	___flmul@prod+2,7
  2980     074C  2F4E               	goto	u1971
  2981     074D  2F4F               	goto	u1970
  2982     074E                     u1971:
  2983     074E  2F2E               	goto	l1520
  2984     074F                     u1970:
  2985     074F                     l1532:
  2986     074F  01CC               	clrf	___flmul@aexp
  2987     0750                     l1534:
  2988     0750  1FCB               	btfss	___flmul@grs+3,7
  2989     0751  2F53               	goto	u1981
  2990     0752  2F54               	goto	u1980
  2991     0753                     u1981:
  2992     0753  2F70               	goto	l1542
  2993     0754                     u1980:
  2994     0754                     l1536:
  2995     0754  30FF               	movlw	255
  2996     0755  0548               	andwf	___flmul@grs,w
  2997     0756  00C2               	movwf	??___flmul
  2998     0757  30FF               	movlw	255
  2999     0758  0549               	andwf	___flmul@grs+1,w
  3000     0759  00C3               	movwf	??___flmul+1
  3001     075A  30FF               	movlw	255
  3002     075B  054A               	andwf	___flmul@grs+2,w
  3003     075C  00C4               	movwf	??___flmul+2
  3004     075D  307F               	movlw	127
  3005     075E  054B               	andwf	___flmul@grs+3,w
  3006     075F  00C5               	movwf	??___flmul+3
  3007     0760  0845               	movf	??___flmul+3,w
  3008     0761  0444               	iorwf	??___flmul+2,w
  3009     0762  0443               	iorwf	??___flmul+1,w
  3010     0763  0442               	iorwf	??___flmul,w
  3011     0764  1903               	skipnz
  3012     0765  2F67               	goto	u1991
  3013     0766  2F68               	goto	u1990
  3014     0767                     u1991:
  3015     0767  2F6B               	goto	l563
  3016     0768                     u1990:
  3017     0768                     l1538:
  3018     0768  01CC               	clrf	___flmul@aexp
  3019     0769  0ACC               	incf	___flmul@aexp,f
  3020     076A  2F70               	goto	l1542
  3021     076B                     l563:
  3022     076B  1C4E               	btfss	___flmul@prod,0
  3023     076C  2F6E               	goto	u2001
  3024     076D  2F6F               	goto	u2000
  3025     076E                     u2001:
  3026     076E  2F70               	goto	l1542
  3027     076F                     u2000:
  3028     076F  2F68               	goto	l1538
  3029     0770                     l1542:
  3030     0770  084C               	movf	___flmul@aexp,w
  3031     0771  1903               	btfsc	3,2
  3032     0772  2F74               	goto	u2011
  3033     0773  2F75               	goto	u2010
  3034     0774                     u2011:
  3035     0774  2FA6               	goto	l1552
  3036     0775                     u2010:
  3037     0775                     l1544:
  3038     0775  3001               	movlw	1
  3039     0776  07CE               	addwf	___flmul@prod,f
  3040     0777  3000               	movlw	0
  3041     0778  1803               	skipnc
  3042     0779  3001               	movlw	1
  3043     077A  07CF               	addwf	___flmul@prod+1,f
  3044     077B  3000               	movlw	0
  3045     077C  1803               	skipnc
  3046     077D  3001               	movlw	1
  3047     077E  07D0               	addwf	___flmul@prod+2,f
  3048     077F  3000               	movlw	0
  3049     0780  1803               	skipnc
  3050     0781  3001               	movlw	1
  3051     0782  07D1               	addwf	___flmul@prod+3,f
  3052     0783                     l1546:
  3053     0783  1C51               	btfss	___flmul@prod+3,0
  3054     0784  2F86               	goto	u2021
  3055     0785  2F87               	goto	u2020
  3056     0786                     u2021:
  3057     0786  2FA6               	goto	l1552
  3058     0787                     u2020:
  3059     0787                     l1548:
  3060     0787  084E               	movf	___flmul@prod,w
  3061     0788  00C2               	movwf	??___flmul
  3062     0789  084F               	movf	___flmul@prod+1,w
  3063     078A  00C3               	movwf	??___flmul+1
  3064     078B  0850               	movf	___flmul@prod+2,w
  3065     078C  00C4               	movwf	??___flmul+2
  3066     078D  0851               	movf	___flmul@prod+3,w
  3067     078E  00C5               	movwf	??___flmul+3
  3068     078F  3001               	movlw	1
  3069     0790  00C6               	movwf	??___flmul+4
  3070     0791                     u2035:
  3071     0791  0D45               	rlf	??___flmul+3,w
  3072     0792  0CC5               	rrf	??___flmul+3,f
  3073     0793  0CC4               	rrf	??___flmul+2,f
  3074     0794  0CC3               	rrf	??___flmul+1,f
  3075     0795  0CC2               	rrf	??___flmul,f
  3076     0796                     u2030:
  3077     0796  0BC6               	decfsz	??___flmul+4,f
  3078     0797  2F91               	goto	u2035
  3079     0798  0845               	movf	??___flmul+3,w
  3080     0799  00D1               	movwf	___flmul@prod+3
  3081     079A  0844               	movf	??___flmul+2,w
  3082     079B  00D0               	movwf	___flmul@prod+2
  3083     079C  0843               	movf	??___flmul+1,w
  3084     079D  00CF               	movwf	___flmul@prod+1
  3085     079E  0842               	movf	??___flmul,w
  3086     079F  00CE               	movwf	___flmul@prod
  3087     07A0                     l1550:
  3088     07A0  3001               	movlw	1
  3089     07A1  07D2               	addwf	___flmul@temp,f
  3090     07A2  1803               	skipnc
  3091     07A3  0AD3               	incf	___flmul@temp+1,f
  3092     07A4  3000               	movlw	0
  3093     07A5  07D3               	addwf	___flmul@temp+1,f
  3094     07A6                     l1552:
  3095     07A6  0853               	movf	___flmul@temp+1,w
  3096     07A7  3A80               	xorlw	128
  3097     07A8  00FF               	movwf	btemp+1
  3098     07A9  3080               	movlw	128
  3099     07AA  027F               	subwf	btemp+1,w
  3100     07AB  1D03               	skipz
  3101     07AC  2FAF               	goto	u2045
  3102     07AD  30FF               	movlw	255
  3103     07AE  0252               	subwf	___flmul@temp,w
  3104     07AF                     u2045:
  3105     07AF  1C03               	skipc
  3106     07B0  2FB2               	goto	u2041
  3107     07B1  2FB3               	goto	u2040
  3108     07B2                     u2041:
  3109     07B2  2FBE               	goto	l1556
  3110     07B3                     u2040:
  3111     07B3                     l1554:
  3112     07B3  307F               	movlw	127
  3113     07B4  1283               	bcf	3,5	;RP0=0, select bank0
  3114     07B5  1303               	bcf	3,6	;RP1=0, select bank0
  3115     07B6  00D1               	movwf	___flmul@prod+3
  3116     07B7  3080               	movlw	128
  3117     07B8  00D0               	movwf	___flmul@prod+2
  3118     07B9  3000               	movlw	0
  3119     07BA  00CF               	movwf	___flmul@prod+1
  3120     07BB  3000               	movlw	0
  3121     07BC  00CE               	movwf	___flmul@prod
  3122     07BD  2FEF               	goto	l1570
  3123     07BE                     l1556:
  3124     07BE  1283               	bcf	3,5	;RP0=0, select bank0
  3125     07BF  1303               	bcf	3,6	;RP1=0, select bank0
  3126     07C0  0853               	movf	___flmul@temp+1,w
  3127     07C1  3A80               	xorlw	128
  3128     07C2  00FF               	movwf	btemp+1
  3129     07C3  3080               	movlw	128
  3130     07C4  027F               	subwf	btemp+1,w
  3131     07C5  1D03               	skipz
  3132     07C6  2FC9               	goto	u2055
  3133     07C7  3001               	movlw	1
  3134     07C8  0252               	subwf	___flmul@temp,w
  3135     07C9                     u2055:
  3136     07C9  1803               	skipnc
  3137     07CA  2FCC               	goto	u2051
  3138     07CB  2FCD               	goto	u2050
  3139     07CC                     u2051:
  3140     07CC  2FD9               	goto	l1562
  3141     07CD                     u2050:
  3142     07CD                     l1558:
  3143     07CD  3000               	movlw	0
  3144     07CE  1283               	bcf	3,5	;RP0=0, select bank0
  3145     07CF  1303               	bcf	3,6	;RP1=0, select bank0
  3146     07D0  00D1               	movwf	___flmul@prod+3
  3147     07D1  3000               	movlw	0
  3148     07D2  00D0               	movwf	___flmul@prod+2
  3149     07D3  3000               	movlw	0
  3150     07D4  00CF               	movwf	___flmul@prod+1
  3151     07D5  3000               	movlw	0
  3152     07D6  00CE               	movwf	___flmul@prod
  3153     07D7                     l1560:
  3154     07D7  01C7               	clrf	___flmul@sign
  3155     07D8  2FEF               	goto	l1570
  3156     07D9                     l1562:
  3157     07D9  1283               	bcf	3,5	;RP0=0, select bank0
  3158     07DA  1303               	bcf	3,6	;RP1=0, select bank0
  3159     07DB  0852               	movf	___flmul@temp,w
  3160     07DC  00CD               	movwf	___flmul@bexp
  3161     07DD  30FF               	movlw	255
  3162     07DE  05CE               	andwf	___flmul@prod,f
  3163     07DF  30FF               	movlw	255
  3164     07E0  05CF               	andwf	___flmul@prod+1,f
  3165     07E1  307F               	movlw	127
  3166     07E2  05D0               	andwf	___flmul@prod+2,f
  3167     07E3  3000               	movlw	0
  3168     07E4  05D1               	andwf	___flmul@prod+3,f
  3169     07E5                     l1564:
  3170     07E5  1C4D               	btfss	___flmul@bexp,0
  3171     07E6  2FE8               	goto	u2061
  3172     07E7  2FE9               	goto	u2060
  3173     07E8                     u2061:
  3174     07E8  2FEA               	goto	l1568
  3175     07E9                     u2060:
  3176     07E9                     l1566:
  3177     07E9  17D0               	bsf	___flmul@prod+2,7
  3178     07EA                     l1568:
  3179     07EA  084D               	movf	___flmul@bexp,w
  3180     07EB  00C2               	movwf	??___flmul
  3181     07EC  1003               	clrc
  3182     07ED  0C42               	rrf	??___flmul,w
  3183     07EE  00D1               	movwf	___flmul@prod+3
  3184     07EF                     l1570:
  3185     07EF  0847               	movf	___flmul@sign,w
  3186     07F0  00FF               	movwf	btemp+1
  3187     07F1  087F               	movf	btemp+1,w
  3188     07F2  04D1               	iorwf	___flmul@prod+3,f
  3189     07F3                     l1572:
  3190     07F3  0851               	movf	___flmul@prod+3,w
  3191     07F4  00BD               	movwf	?___flmul+3
  3192     07F5  0850               	movf	___flmul@prod+2,w
  3193     07F6  00BC               	movwf	?___flmul+2
  3194     07F7  084F               	movf	___flmul@prod+1,w
  3195     07F8  00BB               	movwf	?___flmul+1
  3196     07F9  084E               	movf	___flmul@prod,w
  3197     07FA  00BA               	movwf	?___flmul
  3198     07FB                     l557:
  3199     07FB  0008               	return
  3200     07FC                     __end_of___flmul:
  3201                           
  3202                           	psect	text14
  3203     0FB1                     __ptext14:	
  3204 ;; *************** function __Umul8_16 *****************
  3205 ;; Defined at:
  3206 ;;		line 4 in file "C:\Program Files\Microchip\xc8\v2.46\pic\sources\c99\common\Umul8_16.c"
  3207 ;; Parameters:    Size  Location     Type
  3208 ;;  multiplier      1    wreg     unsigned char 
  3209 ;;  multiplicand    1    0[COMMON] unsigned char 
  3210 ;; Auto vars:     Size  Location     Type
  3211 ;;  multiplier      1    8[COMMON] unsigned char 
  3212 ;;  word_mpld       2    6[COMMON] unsigned short 
  3213 ;;  product         2    4[COMMON] unsigned short 
  3214 ;; Return value:  Size  Location     Type
  3215 ;;                  2    0[COMMON] unsigned int 
  3216 ;; Registers used:
  3217 ;;		wreg, status,2, status,0
  3218 ;; Tracked objects:
  3219 ;;		On entry : 0/0
  3220 ;;		On exit  : 0/0
  3221 ;;		Unchanged: 0/0
  3222 ;; Data sizes:     COMMON   BANK0   BANK1   BANK3   BANK2
  3223 ;;      Params:         2       0       0       0       0
  3224 ;;      Locals:         5       0       0       0       0
  3225 ;;      Temps:          2       0       0       0       0
  3226 ;;      Totals:         9       0       0       0       0
  3227 ;;Total ram usage:        9 bytes
  3228 ;; Hardware stack levels used: 1
  3229 ;; This function calls:
  3230 ;;		Nothing
  3231 ;; This function is called by:
  3232 ;;		___flmul
  3233 ;; This function uses a non-reentrant model
  3234 ;;
  3235                           
  3236     0FB1                     __Umul8_16:	
  3237                           ;psect for function __Umul8_16
  3238                           
  3239                           
  3240                           ;incstack = 0
  3241                           ; Regs used in __Umul8_16: [wreg+status,2+status,0]
  3242                           ;__Umul8_16@multiplier stored from wreg
  3243     0FB1  00F8               	movwf	__Umul8_16@multiplier
  3244     0FB2                     l1168:
  3245     0FB2  01F4               	clrf	__Umul8_16@product
  3246     0FB3  01F5               	clrf	__Umul8_16@product+1
  3247     0FB4                     l1170:
  3248     0FB4  0870               	movf	__Umul8_16@multiplicand,w
  3249     0FB5  00F2               	movwf	??__Umul8_16
  3250     0FB6  01F3               	clrf	??__Umul8_16+1
  3251     0FB7  0872               	movf	??__Umul8_16,w
  3252     0FB8  00F6               	movwf	__Umul8_16@word_mpld
  3253     0FB9  0873               	movf	??__Umul8_16+1,w
  3254     0FBA  00F7               	movwf	__Umul8_16@word_mpld+1
  3255     0FBB                     l1172:
  3256     0FBB  1C78               	btfss	__Umul8_16@multiplier,0
  3257     0FBC  2FBE               	goto	u1131
  3258     0FBD  2FBF               	goto	u1130
  3259     0FBE                     u1131:
  3260     0FBE  2FC5               	goto	l576
  3261     0FBF                     u1130:
  3262     0FBF                     l1174:
  3263     0FBF  0876               	movf	__Umul8_16@word_mpld,w
  3264     0FC0  07F4               	addwf	__Umul8_16@product,f
  3265     0FC1  1803               	skipnc
  3266     0FC2  0AF5               	incf	__Umul8_16@product+1,f
  3267     0FC3  0877               	movf	__Umul8_16@word_mpld+1,w
  3268     0FC4  07F5               	addwf	__Umul8_16@product+1,f
  3269     0FC5                     l576:
  3270     0FC5  3001               	movlw	1
  3271     0FC6                     u1145:
  3272     0FC6  1003               	clrc
  3273     0FC7  0DF6               	rlf	__Umul8_16@word_mpld,f
  3274     0FC8  0DF7               	rlf	__Umul8_16@word_mpld+1,f
  3275     0FC9  3EFF               	addlw	-1
  3276     0FCA  1D03               	skipz
  3277     0FCB  2FC6               	goto	u1145
  3278     0FCC  1003               	clrc
  3279     0FCD  0CF8               	rrf	__Umul8_16@multiplier,f
  3280     0FCE                     l1176:
  3281     0FCE  0878               	movf	__Umul8_16@multiplier,w
  3282     0FCF  1D03               	btfss	3,2
  3283     0FD0  2FD2               	goto	u1151
  3284     0FD1  2FD3               	goto	u1150
  3285     0FD2                     u1151:
  3286     0FD2  2FBB               	goto	l1172
  3287     0FD3                     u1150:
  3288     0FD3                     l1178:
  3289     0FD3  0875               	movf	__Umul8_16@product+1,w
  3290     0FD4  00F1               	movwf	?__Umul8_16+1
  3291     0FD5  0874               	movf	__Umul8_16@product,w
  3292     0FD6  00F0               	movwf	?__Umul8_16
  3293     0FD7                     l578:
  3294     0FD7  0008               	return
  3295     0FD8                     __end_of__Umul8_16:
  3296                           
  3297                           	psect	text15
  3298     02E8                     __ptext15:	
  3299 ;; *************** function ___fldiv *****************
  3300 ;; Defined at:
  3301 ;;		line 8 in file "C:\Program Files\Microchip\xc8\v2.46\pic\sources\c99\common\sprcdiv.c"
  3302 ;; Parameters:    Size  Location     Type
  3303 ;;  a               4    0[BANK0 ] unsigned int 
  3304 ;;  b               4    4[BANK0 ] unsigned int 
  3305 ;; Auto vars:     Size  Location     Type
  3306 ;;  grs             4   20[BANK0 ] unsigned long 
  3307 ;;  rem             4   13[BANK0 ] unsigned long 
  3308 ;;  new_exp         2   18[BANK0 ] short 
  3309 ;;  aexp            1   25[BANK0 ] unsigned char 
  3310 ;;  bexp            1   24[BANK0 ] unsigned char 
  3311 ;;  sign            1   17[BANK0 ] unsigned char 
  3312 ;; Return value:  Size  Location     Type
  3313 ;;                  4    0[BANK0 ] unsigned char 
  3314 ;; Registers used:
  3315 ;;		wreg, status,2, status,0, btemp+1
  3316 ;; Tracked objects:
  3317 ;;		On entry : 0/0
  3318 ;;		On exit  : 0/0
  3319 ;;		Unchanged: 0/0
  3320 ;; Data sizes:     COMMON   BANK0   BANK1   BANK3   BANK2
  3321 ;;      Params:         0       8       0       0       0
  3322 ;;      Locals:         0      13       0       0       0
  3323 ;;      Temps:          0       5       0       0       0
  3324 ;;      Totals:         0      26       0       0       0
  3325 ;;Total ram usage:       26 bytes
  3326 ;; Hardware stack levels used: 1
  3327 ;; This function calls:
  3328 ;;		Nothing
  3329 ;; This function is called by:
  3330 ;;		_main
  3331 ;; This function uses a non-reentrant model
  3332 ;;
  3333                           
  3334     02E8                     ___fldiv:	
  3335                           ;psect for function ___fldiv
  3336                           
  3337     02E8                     l1288:	
  3338                           ;incstack = 0
  3339                           ; Regs used in ___fldiv: [wreg+status,2+status,0+btemp+1]
  3340                           
  3341     02E8  1283               	bcf	3,5	;RP0=0, select bank0
  3342     02E9  1303               	bcf	3,6	;RP1=0, select bank0
  3343     02EA  0827               	movf	___fldiv@b+3,w
  3344     02EB  3980               	andlw	128
  3345     02EC  00B1               	movwf	___fldiv@sign
  3346     02ED                     l1290:
  3347     02ED  0827               	movf	___fldiv@b+3,w
  3348     02EE  00A8               	movwf	??___fldiv
  3349     02EF  0728               	addwf	??___fldiv,w
  3350     02F0  00B8               	movwf	___fldiv@bexp
  3351     02F1                     l1292:
  3352     02F1  1FA6               	btfss	___fldiv@b+2,7
  3353     02F2  2AF4               	goto	u1411
  3354     02F3  2AF5               	goto	u1410
  3355     02F4                     u1411:
  3356     02F4  2AF6               	goto	l1296
  3357     02F5                     u1410:
  3358     02F5                     l1294:
  3359     02F5  1438               	bsf	___fldiv@bexp,0
  3360     02F6                     l1296:
  3361     02F6  0838               	movf	___fldiv@bexp,w
  3362     02F7  1903               	btfsc	3,2
  3363     02F8  2AFA               	goto	u1421
  3364     02F9  2AFB               	goto	u1420
  3365     02FA                     u1421:
  3366     02FA  2B0B               	goto	l1306
  3367     02FB                     u1420:
  3368     02FB                     l1298:
  3369     02FB  0A38               	incf	___fldiv@bexp,w
  3370     02FC  1D03               	btfss	3,2
  3371     02FD  2AFF               	goto	u1431
  3372     02FE  2B00               	goto	u1430
  3373     02FF                     u1431:
  3374     02FF  2B08               	goto	l1302
  3375     0300                     u1430:
  3376     0300                     l1300:
  3377     0300  3000               	movlw	0
  3378     0301  00A7               	movwf	___fldiv@b+3
  3379     0302  3000               	movlw	0
  3380     0303  00A6               	movwf	___fldiv@b+2
  3381     0304  3000               	movlw	0
  3382     0305  00A5               	movwf	___fldiv@b+1
  3383     0306  3000               	movlw	0
  3384     0307  00A4               	movwf	___fldiv@b
  3385     0308                     l1302:
  3386     0308  17A6               	bsf	___fldiv@b+2,7
  3387     0309                     l1304:
  3388     0309  01A7               	clrf	___fldiv@b+3
  3389     030A  2B13               	goto	l1308
  3390     030B                     l1306:
  3391     030B  3000               	movlw	0
  3392     030C  00A7               	movwf	___fldiv@b+3
  3393     030D  3000               	movlw	0
  3394     030E  00A6               	movwf	___fldiv@b+2
  3395     030F  3000               	movlw	0
  3396     0310  00A5               	movwf	___fldiv@b+1
  3397     0311  3000               	movlw	0
  3398     0312  00A4               	movwf	___fldiv@b
  3399     0313                     l1308:
  3400     0313  0823               	movf	___fldiv@a+3,w
  3401     0314  3980               	andlw	128
  3402     0315  00FF               	movwf	btemp+1
  3403     0316  087F               	movf	btemp+1,w
  3404     0317  06B1               	xorwf	___fldiv@sign,f
  3405     0318                     l1310:
  3406     0318  0823               	movf	___fldiv@a+3,w
  3407     0319  00A8               	movwf	??___fldiv
  3408     031A  0728               	addwf	??___fldiv,w
  3409     031B  00B9               	movwf	___fldiv@aexp
  3410     031C                     l1312:
  3411     031C  1FA2               	btfss	___fldiv@a+2,7
  3412     031D  2B1F               	goto	u1441
  3413     031E  2B20               	goto	u1440
  3414     031F                     u1441:
  3415     031F  2B21               	goto	l1316
  3416     0320                     u1440:
  3417     0320                     l1314:
  3418     0320  1439               	bsf	___fldiv@aexp,0
  3419     0321                     l1316:
  3420     0321  0839               	movf	___fldiv@aexp,w
  3421     0322  1903               	btfsc	3,2
  3422     0323  2B25               	goto	u1451
  3423     0324  2B26               	goto	u1450
  3424     0325                     u1451:
  3425     0325  2B36               	goto	l1326
  3426     0326                     u1450:
  3427     0326                     l1318:
  3428     0326  0A39               	incf	___fldiv@aexp,w
  3429     0327  1D03               	btfss	3,2
  3430     0328  2B2A               	goto	u1461
  3431     0329  2B2B               	goto	u1460
  3432     032A                     u1461:
  3433     032A  2B33               	goto	l1322
  3434     032B                     u1460:
  3435     032B                     l1320:
  3436     032B  3000               	movlw	0
  3437     032C  00A3               	movwf	___fldiv@a+3
  3438     032D  3000               	movlw	0
  3439     032E  00A2               	movwf	___fldiv@a+2
  3440     032F  3000               	movlw	0
  3441     0330  00A1               	movwf	___fldiv@a+1
  3442     0331  3000               	movlw	0
  3443     0332  00A0               	movwf	___fldiv@a
  3444     0333                     l1322:
  3445     0333  17A2               	bsf	___fldiv@a+2,7
  3446     0334                     l1324:
  3447     0334  01A3               	clrf	___fldiv@a+3
  3448     0335  2B3E               	goto	l517
  3449     0336                     l1326:
  3450     0336  3000               	movlw	0
  3451     0337  00A3               	movwf	___fldiv@a+3
  3452     0338  3000               	movlw	0
  3453     0339  00A2               	movwf	___fldiv@a+2
  3454     033A  3000               	movlw	0
  3455     033B  00A1               	movwf	___fldiv@a+1
  3456     033C  3000               	movlw	0
  3457     033D  00A0               	movwf	___fldiv@a
  3458     033E                     l517:
  3459     033E  0823               	movf	___fldiv@a+3,w
  3460     033F  0422               	iorwf	___fldiv@a+2,w
  3461     0340  0421               	iorwf	___fldiv@a+1,w
  3462     0341  0420               	iorwf	___fldiv@a,w
  3463     0342  1D03               	skipz
  3464     0343  2B45               	goto	u1471
  3465     0344  2B46               	goto	u1470
  3466     0345                     u1471:
  3467     0345  2B5F               	goto	l1336
  3468     0346                     u1470:
  3469     0346                     l1328:
  3470     0346  3000               	movlw	0
  3471     0347  00A7               	movwf	___fldiv@b+3
  3472     0348  3000               	movlw	0
  3473     0349  00A6               	movwf	___fldiv@b+2
  3474     034A  3000               	movlw	0
  3475     034B  00A5               	movwf	___fldiv@b+1
  3476     034C  3000               	movlw	0
  3477     034D  00A4               	movwf	___fldiv@b
  3478     034E  3080               	movlw	128
  3479     034F  04A6               	iorwf	___fldiv@b+2,f
  3480     0350  307F               	movlw	127
  3481     0351  04A7               	iorwf	___fldiv@b+3,f
  3482     0352                     l1330:
  3483     0352  0831               	movf	___fldiv@sign,w
  3484     0353  00FF               	movwf	btemp+1
  3485     0354  087F               	movf	btemp+1,w
  3486     0355  04A7               	iorwf	___fldiv@b+3,f
  3487     0356                     l1332:
  3488     0356  0827               	movf	___fldiv@b+3,w
  3489     0357  00A3               	movwf	?___fldiv+3
  3490     0358  0826               	movf	___fldiv@b+2,w
  3491     0359  00A2               	movwf	?___fldiv+2
  3492     035A  0825               	movf	___fldiv@b+1,w
  3493     035B  00A1               	movwf	?___fldiv+1
  3494     035C  0824               	movf	___fldiv@b,w
  3495     035D  00A0               	movwf	?___fldiv
  3496     035E  2CB6               	goto	l519
  3497     035F                     l1336:
  3498     035F  0838               	movf	___fldiv@bexp,w
  3499     0360  1D03               	btfss	3,2
  3500     0361  2B63               	goto	u1481
  3501     0362  2B64               	goto	u1480
  3502     0363                     u1481:
  3503     0363  2B6D               	goto	l1342
  3504     0364                     u1480:
  3505     0364                     l1338:
  3506     0364  3000               	movlw	0
  3507     0365  00A3               	movwf	?___fldiv+3
  3508     0366  3000               	movlw	0
  3509     0367  00A2               	movwf	?___fldiv+2
  3510     0368  3000               	movlw	0
  3511     0369  00A1               	movwf	?___fldiv+1
  3512     036A  3000               	movlw	0
  3513     036B  00A0               	movwf	?___fldiv
  3514     036C  2CB6               	goto	l519
  3515     036D                     l1342:
  3516     036D  0838               	movf	___fldiv@bexp,w
  3517     036E  00A8               	movwf	??___fldiv
  3518     036F  01A9               	clrf	??___fldiv+1
  3519     0370  0829               	movf	??___fldiv+1,w
  3520     0371  00AB               	movwf	??___fldiv+3
  3521     0372  0839               	movf	___fldiv@aexp,w
  3522     0373  0228               	subwf	??___fldiv,w
  3523     0374  00AA               	movwf	??___fldiv+2
  3524     0375  1C03               	skipc
  3525     0376  03AB               	decf	??___fldiv+3,f
  3526     0377  082A               	movf	??___fldiv+2,w
  3527     0378  3E7F               	addlw	127
  3528     0379  00B2               	movwf	___fldiv@new_exp
  3529     037A  082B               	movf	??___fldiv+3,w
  3530     037B  1803               	skipnc
  3531     037C  3E01               	addlw	1
  3532     037D  3E00               	addlw	0
  3533     037E  00B3               	movwf	___fldiv@new_exp+1
  3534     037F                     l1344:
  3535     037F  0827               	movf	___fldiv@b+3,w
  3536     0380  00B0               	movwf	___fldiv@rem+3
  3537     0381  0826               	movf	___fldiv@b+2,w
  3538     0382  00AF               	movwf	___fldiv@rem+2
  3539     0383  0825               	movf	___fldiv@b+1,w
  3540     0384  00AE               	movwf	___fldiv@rem+1
  3541     0385  0824               	movf	___fldiv@b,w
  3542     0386  00AD               	movwf	___fldiv@rem
  3543     0387                     l1346:
  3544     0387  3000               	movlw	0
  3545     0388  00A7               	movwf	___fldiv@b+3
  3546     0389  3000               	movlw	0
  3547     038A  00A6               	movwf	___fldiv@b+2
  3548     038B  3000               	movlw	0
  3549     038C  00A5               	movwf	___fldiv@b+1
  3550     038D  3000               	movlw	0
  3551     038E  00A4               	movwf	___fldiv@b
  3552     038F                     l1348:
  3553     038F  3000               	movlw	0
  3554     0390  00B7               	movwf	___fldiv@grs+3
  3555     0391  3000               	movlw	0
  3556     0392  00B6               	movwf	___fldiv@grs+2
  3557     0393  3000               	movlw	0
  3558     0394  00B5               	movwf	___fldiv@grs+1
  3559     0395  3000               	movlw	0
  3560     0396  00B4               	movwf	___fldiv@grs
  3561     0397                     l1350:
  3562     0397  01B9               	clrf	___fldiv@aexp
  3563     0398  2BE3               	goto	l1370
  3564     0399                     l1352:
  3565     0399  0839               	movf	___fldiv@aexp,w
  3566     039A  1903               	btfsc	3,2
  3567     039B  2B9D               	goto	u1491
  3568     039C  2B9E               	goto	u1490
  3569     039D                     u1491:
  3570     039D  2BBE               	goto	l1362
  3571     039E                     u1490:
  3572     039E                     l1354:
  3573     039E  3001               	movlw	1
  3574     039F  00A8               	movwf	??___fldiv
  3575     03A0                     u1505:
  3576     03A0  1003               	clrc
  3577     03A1  0DAD               	rlf	___fldiv@rem,f
  3578     03A2  0DAE               	rlf	___fldiv@rem+1,f
  3579     03A3  0DAF               	rlf	___fldiv@rem+2,f
  3580     03A4  0DB0               	rlf	___fldiv@rem+3,f
  3581     03A5  0BA8               	decfsz	??___fldiv,f
  3582     03A6  2BA0               	goto	u1505
  3583     03A7  3001               	movlw	1
  3584     03A8  00A8               	movwf	??___fldiv
  3585     03A9                     u1515:
  3586     03A9  1003               	clrc
  3587     03AA  0DA4               	rlf	___fldiv@b,f
  3588     03AB  0DA5               	rlf	___fldiv@b+1,f
  3589     03AC  0DA6               	rlf	___fldiv@b+2,f
  3590     03AD  0DA7               	rlf	___fldiv@b+3,f
  3591     03AE  0BA8               	decfsz	??___fldiv,f
  3592     03AF  2BA9               	goto	u1515
  3593     03B0                     l1356:
  3594     03B0  1FB7               	btfss	___fldiv@grs+3,7
  3595     03B1  2BB3               	goto	u1521
  3596     03B2  2BB4               	goto	u1520
  3597     03B3                     u1521:
  3598     03B3  2BB5               	goto	l1360
  3599     03B4                     u1520:
  3600     03B4                     l1358:
  3601     03B4  1424               	bsf	___fldiv@b,0
  3602     03B5                     l1360:
  3603     03B5  3001               	movlw	1
  3604     03B6  00A8               	movwf	??___fldiv
  3605     03B7                     u1535:
  3606     03B7  1003               	clrc
  3607     03B8  0DB4               	rlf	___fldiv@grs,f
  3608     03B9  0DB5               	rlf	___fldiv@grs+1,f
  3609     03BA  0DB6               	rlf	___fldiv@grs+2,f
  3610     03BB  0DB7               	rlf	___fldiv@grs+3,f
  3611     03BC  0BA8               	decfsz	??___fldiv,f
  3612     03BD  2BB7               	goto	u1535
  3613     03BE                     l1362:
  3614     03BE  0823               	movf	___fldiv@a+3,w
  3615     03BF  0230               	subwf	___fldiv@rem+3,w
  3616     03C0  1D03               	skipz
  3617     03C1  2BCC               	goto	u1545
  3618     03C2  0822               	movf	___fldiv@a+2,w
  3619     03C3  022F               	subwf	___fldiv@rem+2,w
  3620     03C4  1D03               	skipz
  3621     03C5  2BCC               	goto	u1545
  3622     03C6  0821               	movf	___fldiv@a+1,w
  3623     03C7  022E               	subwf	___fldiv@rem+1,w
  3624     03C8  1D03               	skipz
  3625     03C9  2BCC               	goto	u1545
  3626     03CA  0820               	movf	___fldiv@a,w
  3627     03CB  022D               	subwf	___fldiv@rem,w
  3628     03CC                     u1545:
  3629     03CC  1C03               	skipc
  3630     03CD  2BCF               	goto	u1541
  3631     03CE  2BD0               	goto	u1540
  3632     03CF                     u1541:
  3633     03CF  2BDF               	goto	l1368
  3634     03D0                     u1540:
  3635     03D0                     l1364:
  3636     03D0  1737               	bsf	___fldiv@grs+3,6
  3637     03D1                     l1366:
  3638     03D1  0820               	movf	___fldiv@a,w
  3639     03D2  02AD               	subwf	___fldiv@rem,f
  3640     03D3  0821               	movf	___fldiv@a+1,w
  3641     03D4  1C03               	skipc
  3642     03D5  0F21               	incfsz	___fldiv@a+1,w
  3643     03D6  02AE               	subwf	___fldiv@rem+1,f
  3644     03D7  0822               	movf	___fldiv@a+2,w
  3645     03D8  1C03               	skipc
  3646     03D9  0F22               	incfsz	___fldiv@a+2,w
  3647     03DA  02AF               	subwf	___fldiv@rem+2,f
  3648     03DB  0823               	movf	___fldiv@a+3,w
  3649     03DC  1C03               	skipc
  3650     03DD  0F23               	incfsz	___fldiv@a+3,w
  3651     03DE  02B0               	subwf	___fldiv@rem+3,f
  3652     03DF                     l1368:
  3653     03DF  3001               	movlw	1
  3654     03E0  00FF               	movwf	btemp+1
  3655     03E1  087F               	movf	btemp+1,w
  3656     03E2  07B9               	addwf	___fldiv@aexp,f
  3657     03E3                     l1370:
  3658     03E3  301A               	movlw	26
  3659     03E4  0239               	subwf	___fldiv@aexp,w
  3660     03E5  1C03               	skipc
  3661     03E6  2BE8               	goto	u1551
  3662     03E7  2BE9               	goto	u1550
  3663     03E8                     u1551:
  3664     03E8  2B99               	goto	l1352
  3665     03E9                     u1550:
  3666     03E9                     l1372:
  3667     03E9  0830               	movf	___fldiv@rem+3,w
  3668     03EA  042F               	iorwf	___fldiv@rem+2,w
  3669     03EB  042E               	iorwf	___fldiv@rem+1,w
  3670     03EC  042D               	iorwf	___fldiv@rem,w
  3671     03ED  1903               	skipnz
  3672     03EE  2BF0               	goto	u1561
  3673     03EF  2BF1               	goto	u1560
  3674     03F0                     u1561:
  3675     03F0  2C10               	goto	l1386
  3676     03F1                     u1560:
  3677     03F1                     l1374:
  3678     03F1  1434               	bsf	___fldiv@grs,0
  3679     03F2  2C10               	goto	l1386
  3680     03F3                     l1376:
  3681     03F3  3001               	movlw	1
  3682     03F4  00A8               	movwf	??___fldiv
  3683     03F5                     u1575:
  3684     03F5  1003               	clrc
  3685     03F6  0DA4               	rlf	___fldiv@b,f
  3686     03F7  0DA5               	rlf	___fldiv@b+1,f
  3687     03F8  0DA6               	rlf	___fldiv@b+2,f
  3688     03F9  0DA7               	rlf	___fldiv@b+3,f
  3689     03FA  0BA8               	decfsz	??___fldiv,f
  3690     03FB  2BF5               	goto	u1575
  3691     03FC                     l1378:
  3692     03FC  1FB7               	btfss	___fldiv@grs+3,7
  3693     03FD  2BFF               	goto	u1581
  3694     03FE  2C00               	goto	u1580
  3695     03FF                     u1581:
  3696     03FF  2C01               	goto	l1382
  3697     0400                     u1580:
  3698     0400                     l1380:
  3699     0400  1424               	bsf	___fldiv@b,0
  3700     0401                     l1382:
  3701     0401  3001               	movlw	1
  3702     0402  00A8               	movwf	??___fldiv
  3703     0403                     u1595:
  3704     0403  1003               	clrc
  3705     0404  0DB4               	rlf	___fldiv@grs,f
  3706     0405  0DB5               	rlf	___fldiv@grs+1,f
  3707     0406  0DB6               	rlf	___fldiv@grs+2,f
  3708     0407  0DB7               	rlf	___fldiv@grs+3,f
  3709     0408  0BA8               	decfsz	??___fldiv,f
  3710     0409  2C03               	goto	u1595
  3711     040A                     l1384:
  3712     040A  30FF               	movlw	255
  3713     040B  07B2               	addwf	___fldiv@new_exp,f
  3714     040C  1803               	skipnc
  3715     040D  0AB3               	incf	___fldiv@new_exp+1,f
  3716     040E  30FF               	movlw	255
  3717     040F  07B3               	addwf	___fldiv@new_exp+1,f
  3718     0410                     l1386:
  3719     0410  1FA6               	btfss	___fldiv@b+2,7
  3720     0411  2C13               	goto	u1601
  3721     0412  2C14               	goto	u1600
  3722     0413                     u1601:
  3723     0413  2BF3               	goto	l1376
  3724     0414                     u1600:
  3725     0414                     l1388:
  3726     0414  01B9               	clrf	___fldiv@aexp
  3727     0415                     l1390:
  3728     0415  1FB7               	btfss	___fldiv@grs+3,7
  3729     0416  2C18               	goto	u1611
  3730     0417  2C19               	goto	u1610
  3731     0418                     u1611:
  3732     0418  2C35               	goto	l1398
  3733     0419                     u1610:
  3734     0419                     l1392:
  3735     0419  30FF               	movlw	255
  3736     041A  0534               	andwf	___fldiv@grs,w
  3737     041B  00A8               	movwf	??___fldiv
  3738     041C  30FF               	movlw	255
  3739     041D  0535               	andwf	___fldiv@grs+1,w
  3740     041E  00A9               	movwf	??___fldiv+1
  3741     041F  30FF               	movlw	255
  3742     0420  0536               	andwf	___fldiv@grs+2,w
  3743     0421  00AA               	movwf	??___fldiv+2
  3744     0422  307F               	movlw	127
  3745     0423  0537               	andwf	___fldiv@grs+3,w
  3746     0424  00AB               	movwf	??___fldiv+3
  3747     0425  082B               	movf	??___fldiv+3,w
  3748     0426  042A               	iorwf	??___fldiv+2,w
  3749     0427  0429               	iorwf	??___fldiv+1,w
  3750     0428  0428               	iorwf	??___fldiv,w
  3751     0429  1903               	skipnz
  3752     042A  2C2C               	goto	u1621
  3753     042B  2C2D               	goto	u1620
  3754     042C                     u1621:
  3755     042C  2C30               	goto	l533
  3756     042D                     u1620:
  3757     042D                     l1394:
  3758     042D  01B9               	clrf	___fldiv@aexp
  3759     042E  0AB9               	incf	___fldiv@aexp,f
  3760     042F  2C35               	goto	l1398
  3761     0430                     l533:
  3762     0430  1C24               	btfss	___fldiv@b,0
  3763     0431  2C33               	goto	u1631
  3764     0432  2C34               	goto	u1630
  3765     0433                     u1631:
  3766     0433  2C35               	goto	l1398
  3767     0434                     u1630:
  3768     0434  2C2D               	goto	l1394
  3769     0435                     l1398:
  3770     0435  0839               	movf	___fldiv@aexp,w
  3771     0436  1903               	btfsc	3,2
  3772     0437  2C39               	goto	u1641
  3773     0438  2C3A               	goto	u1640
  3774     0439                     u1641:
  3775     0439  2C6B               	goto	l1408
  3776     043A                     u1640:
  3777     043A                     l1400:
  3778     043A  3001               	movlw	1
  3779     043B  07A4               	addwf	___fldiv@b,f
  3780     043C  3000               	movlw	0
  3781     043D  1803               	skipnc
  3782     043E  3001               	movlw	1
  3783     043F  07A5               	addwf	___fldiv@b+1,f
  3784     0440  3000               	movlw	0
  3785     0441  1803               	skipnc
  3786     0442  3001               	movlw	1
  3787     0443  07A6               	addwf	___fldiv@b+2,f
  3788     0444  3000               	movlw	0
  3789     0445  1803               	skipnc
  3790     0446  3001               	movlw	1
  3791     0447  07A7               	addwf	___fldiv@b+3,f
  3792     0448                     l1402:
  3793     0448  1C27               	btfss	___fldiv@b+3,0
  3794     0449  2C4B               	goto	u1651
  3795     044A  2C4C               	goto	u1650
  3796     044B                     u1651:
  3797     044B  2C6B               	goto	l1408
  3798     044C                     u1650:
  3799     044C                     l1404:
  3800     044C  0824               	movf	___fldiv@b,w
  3801     044D  00A8               	movwf	??___fldiv
  3802     044E  0825               	movf	___fldiv@b+1,w
  3803     044F  00A9               	movwf	??___fldiv+1
  3804     0450  0826               	movf	___fldiv@b+2,w
  3805     0451  00AA               	movwf	??___fldiv+2
  3806     0452  0827               	movf	___fldiv@b+3,w
  3807     0453  00AB               	movwf	??___fldiv+3
  3808     0454  3001               	movlw	1
  3809     0455  00AC               	movwf	??___fldiv+4
  3810     0456                     u1665:
  3811     0456  0D2B               	rlf	??___fldiv+3,w
  3812     0457  0CAB               	rrf	??___fldiv+3,f
  3813     0458  0CAA               	rrf	??___fldiv+2,f
  3814     0459  0CA9               	rrf	??___fldiv+1,f
  3815     045A  0CA8               	rrf	??___fldiv,f
  3816     045B                     u1660:
  3817     045B  0BAC               	decfsz	??___fldiv+4,f
  3818     045C  2C56               	goto	u1665
  3819     045D  082B               	movf	??___fldiv+3,w
  3820     045E  00A7               	movwf	___fldiv@b+3
  3821     045F  082A               	movf	??___fldiv+2,w
  3822     0460  00A6               	movwf	___fldiv@b+2
  3823     0461  0829               	movf	??___fldiv+1,w
  3824     0462  00A5               	movwf	___fldiv@b+1
  3825     0463  0828               	movf	??___fldiv,w
  3826     0464  00A4               	movwf	___fldiv@b
  3827     0465                     l1406:
  3828     0465  3001               	movlw	1
  3829     0466  07B2               	addwf	___fldiv@new_exp,f
  3830     0467  1803               	skipnc
  3831     0468  0AB3               	incf	___fldiv@new_exp+1,f
  3832     0469  3000               	movlw	0
  3833     046A  07B3               	addwf	___fldiv@new_exp+1,f
  3834     046B                     l1408:
  3835     046B  0833               	movf	___fldiv@new_exp+1,w
  3836     046C  3A80               	xorlw	128
  3837     046D  00FF               	movwf	btemp+1
  3838     046E  3080               	movlw	128
  3839     046F  027F               	subwf	btemp+1,w
  3840     0470  1D03               	skipz
  3841     0471  2C74               	goto	u1675
  3842     0472  30FF               	movlw	255
  3843     0473  0232               	subwf	___fldiv@new_exp,w
  3844     0474                     u1675:
  3845     0474  1C03               	skipc
  3846     0475  2C77               	goto	u1671
  3847     0476  2C78               	goto	u1670
  3848     0477                     u1671:
  3849     0477  2C86               	goto	l1412
  3850     0478                     u1670:
  3851     0478                     l1410:
  3852     0478  30FF               	movlw	255
  3853     0479  1283               	bcf	3,5	;RP0=0, select bank0
  3854     047A  1303               	bcf	3,6	;RP1=0, select bank0
  3855     047B  00B2               	movwf	___fldiv@new_exp
  3856     047C  3000               	movlw	0
  3857     047D  00B3               	movwf	___fldiv@new_exp+1
  3858     047E  3000               	movlw	0
  3859     047F  00A7               	movwf	___fldiv@b+3
  3860     0480  3000               	movlw	0
  3861     0481  00A6               	movwf	___fldiv@b+2
  3862     0482  3000               	movlw	0
  3863     0483  00A5               	movwf	___fldiv@b+1
  3864     0484  3000               	movlw	0
  3865     0485  00A4               	movwf	___fldiv@b
  3866     0486                     l1412:
  3867     0486  1283               	bcf	3,5	;RP0=0, select bank0
  3868     0487  1303               	bcf	3,6	;RP1=0, select bank0
  3869     0488  0833               	movf	___fldiv@new_exp+1,w
  3870     0489  3A80               	xorlw	128
  3871     048A  00FF               	movwf	btemp+1
  3872     048B  3080               	movlw	128
  3873     048C  027F               	subwf	btemp+1,w
  3874     048D  1D03               	skipz
  3875     048E  2C91               	goto	u1685
  3876     048F  3001               	movlw	1
  3877     0490  0232               	subwf	___fldiv@new_exp,w
  3878     0491                     u1685:
  3879     0491  1803               	skipnc
  3880     0492  2C94               	goto	u1681
  3881     0493  2C95               	goto	u1680
  3882     0494                     u1681:
  3883     0494  2CA2               	goto	l539
  3884     0495                     u1680:
  3885     0495                     l1414:
  3886     0495  1283               	bcf	3,5	;RP0=0, select bank0
  3887     0496  1303               	bcf	3,6	;RP1=0, select bank0
  3888     0497  01B2               	clrf	___fldiv@new_exp
  3889     0498  01B3               	clrf	___fldiv@new_exp+1
  3890     0499                     l1416:
  3891     0499  3000               	movlw	0
  3892     049A  00A7               	movwf	___fldiv@b+3
  3893     049B  3000               	movlw	0
  3894     049C  00A6               	movwf	___fldiv@b+2
  3895     049D  3000               	movlw	0
  3896     049E  00A5               	movwf	___fldiv@b+1
  3897     049F  3000               	movlw	0
  3898     04A0  00A4               	movwf	___fldiv@b
  3899     04A1                     l1418:
  3900     04A1  01B1               	clrf	___fldiv@sign
  3901     04A2                     l539:
  3902     04A2  1283               	bcf	3,5	;RP0=0, select bank0
  3903     04A3  1303               	bcf	3,6	;RP1=0, select bank0
  3904     04A4  0832               	movf	___fldiv@new_exp,w
  3905     04A5  00B8               	movwf	___fldiv@bexp
  3906     04A6                     l1420:
  3907     04A6  1C38               	btfss	___fldiv@bexp,0
  3908     04A7  2CA9               	goto	u1691
  3909     04A8  2CAA               	goto	u1690
  3910     04A9                     u1691:
  3911     04A9  2CAC               	goto	l1424
  3912     04AA                     u1690:
  3913     04AA                     l1422:
  3914     04AA  17A6               	bsf	___fldiv@b+2,7
  3915     04AB  2CB0               	goto	l1426
  3916     04AC                     l1424:
  3917     04AC  307F               	movlw	127
  3918     04AD  00FF               	movwf	btemp+1
  3919     04AE  087F               	movf	btemp+1,w
  3920     04AF  05A6               	andwf	___fldiv@b+2,f
  3921     04B0                     l1426:
  3922     04B0  0838               	movf	___fldiv@bexp,w
  3923     04B1  00A8               	movwf	??___fldiv
  3924     04B2  1003               	clrc
  3925     04B3  0C28               	rrf	??___fldiv,w
  3926     04B4  00A7               	movwf	___fldiv@b+3
  3927     04B5  2B52               	goto	l1330
  3928     04B6                     l519:
  3929     04B6  0008               	return
  3930     04B7                     __end_of___fldiv:
  3931     007E                     btemp	set	126	;btemp
  3932     007E                     wtemp0	set	126
  3933                           
  3934                           	psect	idloc
  3935                           
  3936                           ;Config register IDLOC0 @ 0x2000
  3937                           ;	unspecified, using default values
  3938     2000                     	org	8192
  3939     2000  3FFF               	dw	16383
  3940                           
  3941                           ;Config register IDLOC1 @ 0x2001
  3942                           ;	unspecified, using default values
  3943     2001                     	org	8193
  3944     2001  3FFF               	dw	16383
  3945                           
  3946                           ;Config register IDLOC2 @ 0x2002
  3947                           ;	unspecified, using default values
  3948     2002                     	org	8194
  3949     2002  3FFF               	dw	16383
  3950                           
  3951                           ;Config register IDLOC3 @ 0x2003
  3952                           ;	unspecified, using default values
  3953     2003                     	org	8195
  3954     2003  3FFF               	dw	16383
  3955                           
  3956                           	psect	config
  3957                           
  3958                           ;Config register CONFIG @ 0x2007
  3959                           ;	Oscillator Selection bits
  3960                           ;	FOSC = 0x3, unprogrammed default
  3961                           ;	Watchdog Timer Enable bit
  3962                           ;	WDTE = OFF, WDT disabled
  3963                           ;	Power-up Timer Enable bit
  3964                           ;	PWRTE = 0x1, unprogrammed default
  3965                           ;	Brown-out Reset Enable bit
  3966                           ;	BOREN = 0x1, unprogrammed default
  3967                           ;	Low-Voltage (Single-Supply) In-Circuit Serial Programming Enable bit
  3968                           ;	LVP = 0x1, unprogrammed default
  3969                           ;	Data EEPROM Memory Code Protection bit
  3970                           ;	CPD = 0x1, unprogrammed default
  3971                           ;	Flash Program Memory Write Enable bits
  3972                           ;	WRT = 0x3, unprogrammed default
  3973                           ;	In-Circuit Debugger Mode bit
  3974                           ;	DEBUG = 0x1, unprogrammed default
  3975                           ;	Flash Program Memory Code Protection bit
  3976                           ;	CP = 0x1, unprogrammed default
  3977     2007                     	org	8199
  3978     2007  3FFB               	dw	16379

Data Sizes:
    Strings     35
    Constant    0
    Data        0
    BSS         0
    Persistent  0
    Stack       0

Auto Spaces:
    Space          Size  Autos    Used
    COMMON           14     14      14
    BANK0            80     68      68
    BANK1            80      0       0
    BANK3            96      0       0
    BANK2            96      0       0

Pointer List with Targets:

    clcd_print@str	PTR const unsigned char  size(1) Largest target is 18
		 -> STR_1(CODE[18]), STR_2(CODE[11]), STR_3(CODE[6]), 


Critical Paths under _main in COMMON

    _main->___xxtofl
    _init_clcd->_init_display_controller
    _init_display_controller->_clcd_write
    _clcd_putch->___lwdiv
    _clcd_print->_clcd_write
    ___fltol->___xxtofl
    ___flmul->___xxtofl
    ___fldiv->___xxtofl

Critical Paths under _main in BANK0

    _main->___fltol
    ___fltol->___flmul
    ___flmul->___fldiv

Critical Paths under _main in BANK1

    None.

Critical Paths under _main in BANK3

    None.

Critical Paths under _main in BANK2

    None.

Call Graph Tables:

 ---------------------------------------------------------------------------------
 (Depth) Function   	        Calls       Base Space   Used Autos Params    Refs
 ---------------------------------------------------------------------------------
 (0) _main                                                 6     6      0    8286
                                             62 BANK0      6     6      0
                            ___fldiv
                            ___flmul
                            ___fltol
                            ___lwdiv
                            ___lwmod
                           ___xxtofl
                         _clcd_print
                         _clcd_putch
                        _init_config
                           _read_adc
 ---------------------------------------------------------------------------------
 (1) _read_adc                                             4     2      2      23
                                              0 COMMON     4     2      2
 ---------------------------------------------------------------------------------
 (1) _init_config                                          0     0      0     804
                           _init_adc
                          _init_clcd
 ---------------------------------------------------------------------------------
 (2) _init_clcd                                            0     0      0     804
            _init_display_controller
 ---------------------------------------------------------------------------------
 (3) _init_display_controller                              2     2      0     804
                                              4 COMMON     2     2      0
                         _clcd_write
 ---------------------------------------------------------------------------------
 (2) _init_adc                                             0     0      0       0
 ---------------------------------------------------------------------------------
 (1) _clcd_putch                                           2     1      1    1000
                                              7 COMMON     2     1      1
                            ___lwdiv (ARG)
                            ___lwmod (ARG)
                         _clcd_write
 ---------------------------------------------------------------------------------
 (1) _clcd_print                                           2     1      1    1198
                                              4 COMMON     2     1      1
                         _clcd_write
 ---------------------------------------------------------------------------------
 (4) _clcd_write                                           4     3      1     804
                                              0 COMMON     4     3      1
 ---------------------------------------------------------------------------------
 (1) ___xxtofl                                            14    10      4     398
                                              0 COMMON    14    10      4
 ---------------------------------------------------------------------------------
 (1) ___lwmod                                              5     1      4     311
                                              0 COMMON     5     1      4
 ---------------------------------------------------------------------------------
 (1) ___lwdiv                                              7     3      4     314
                                              0 COMMON     7     3      4
 ---------------------------------------------------------------------------------
 (1) ___fltol                                             10     6      4     305
                                             52 BANK0     10     6      4
                            ___fldiv (ARG)
                            ___flmul (ARG)
                           ___xxtofl (ARG)
 ---------------------------------------------------------------------------------
 (1) ___flmul                                             26    18      8    2569
                                             26 BANK0     26    18      8
                          __Umul8_16
                            ___fldiv (ARG)
                           ___xxtofl (ARG)
 ---------------------------------------------------------------------------------
 (2) __Umul8_16                                            9     7      2     799
                                              0 COMMON     9     7      2
 ---------------------------------------------------------------------------------
 (1) ___fldiv                                             26    18      8    1273
                                              0 BANK0     26    18      8
                           ___xxtofl (ARG)
 ---------------------------------------------------------------------------------
 Estimated maximum stack depth 4
 ---------------------------------------------------------------------------------

 Call Graph Graphs:

 _main (ROOT)
   ___fldiv
     ___xxtofl (ARG)
   ___flmul
     __Umul8_16
     ___fldiv (ARG)
     ___xxtofl (ARG)
   ___fltol
     ___fldiv (ARG)
     ___flmul (ARG)
     ___xxtofl (ARG)
   ___lwdiv
   ___lwmod
   ___xxtofl
   _clcd_print
     _clcd_write
   _clcd_putch
     ___lwdiv (ARG)
     ___lwmod (ARG)
     _clcd_write (ARG)
   _init_config
     _init_adc
     _init_clcd
       _init_display_controller
         _clcd_write
   _read_adc

 Address spaces:
Name               Size   Autos  Total    Cost      Usage
BITCOMMON            E      0       0       0        0.0%
EEDATA             100      0       0       0        0.0%
NULL                 0      0       0       0        0.0%
CODE                 0      0       0       0        0.0%
COMMON               E      E       E       1      100.0%
BITSFR0              0      0       0       1        0.0%
SFR0                 0      0       0       1        0.0%
BITSFR1              0      0       0       2        0.0%
SFR1                 0      0       0       2        0.0%
STACK                0      0       0       2        0.0%
ABS                  0      0       0       3        0.0%
BITBANK0            50      0       0       4        0.0%
BITSFR3              0      0       0       4        0.0%
SFR3                 0      0       0       4        0.0%
BANK0               50     44      44       5       85.0%
BITSFR2              0      0       0       5        0.0%
SFR2                 0      0       0       5        0.0%
BITBANK1            50      0       0       6        0.0%
BANK1               50      0       0       7        0.0%
BITBANK3            60      0       0       8        0.0%
BANK3               60      0       0       9        0.0%
BITBANK2            60      0       0      10        0.0%
BANK2               60      0       0      11        0.0%
DATA                 0      0       0      12        0.0%


Microchip Technology PIC Macro Assembler V2.46 build 20240104201356 
Symbol Table                                                                                   Thu Jul 25 19:03:00 2024

                   ___fldiv@aexp 0039                     ___fldiv@bexp 0038                                pc 0002  
                   ___fldiv@sign 0031                   clcd_print@addr 0074                               l21 0018  
                             l15 0F69                               l41 00ED                               l18 000A  
                             l44 0F74                               l53 0FFF                               l38 0FB0  
                             l47 0F90                               l66 0F7F                               _GO 00FA  
                             fsr 0004              __Umul8_16@word_mpld 0076                              l440 0096  
                            l361 0150                              l601 0188                              l354 0165  
                            l450 0052                              l603 021D                              l364 0165  
                            l533 0430                              l517 033E                              l614 01E7  
                            l519 04B6                              l615 01F3                              l539 04A2  
                            l563 076B                              l557 07FB                              l576 0FC5  
                            l578 0FD7                              _RE1 0049                              _RE2 004A  
                 clcd_putch@addr 0077                              fsr0 0004                   clcd_putch@data 0078  
                   ___flmul@aexp 004C                     ___flmul@bexp 004D                     ___flmul@sign 0047  
                   ___flmul@temp 0052                     ___flmul@prod 004E                     ___fltol@exp1 005D  
                           l1200 0F7A                             l1210 0115                             l1202 00EE  
                           l1130 0F92                             l1300 0300                             l1212 0116  
                           l1204 00F9                             l1132 0F9C                             l1140 009F  
                           l1310 0318                             l1302 0308                             l1214 011E  
                           l1134 0F9E                             l1150 00C5                             l1142 00A6  
                           l1400 043A                             l1320 032B                             l1312 031C  
                           l1304 0309                             l1224 012C                             l1216 0120  
                           l1208 0102                             l1240 0053                             l1136 0FA4  
                           l1152 00CC                             l1144 00B6                             l1160 0F6A  
                           l1410 0478                             l1402 0448                             l1330 0352  
                           l1322 0333                             l1314 0320                             l1306 030B  
                           l1170 0FB4                             l1234 0145                             l1226 0135  
                           l1218 0124                             l1250 0069                             l1242 0055  
                           l1154 00D8                             l1146 00BB                             l1138 0097  
                           l1162 0F6D                             l1420 04A6                             l1412 0486  
                           l1404 044C                             l1332 0356                             l1324 0334  
                           l1316 0321                             l1308 0313                             l1172 0FBB  
                           l1500 0614                             l1236 0155                             l1228 013E  
                           l1260 008C                             l1252 006D                             l1244 005B  
                           l1156 00E1                             l1148 00C2                             l1164 0F6E  
                           l1422 04AA                             l1414 0495                             l1406 0465  
                           l1350 0397                             l1342 036D                             l1318 0326  
                           l1326 0336                             l1174 0FBF                             l1510 069E  
                           l1502 0631                             l1238 015A                             l1254 007E  
                           l1246 005E                             l1262 0092                             l1270 0022  
                           l1190 0FD9                             l1158 0F63                             l1166 0F6F  
                           l1182 0007                             l1424 04AC                             l1416 0499  
                           l1408 046B                             l1360 03B5                             l1352 0399  
                           l1344 037F                             l1328 0346                             l1336 035F  
                           l1176 0FCE                             l1168 0FB2                             l1520 072E  
                           l1512 06C9                             l1504 0648                             l1440 04C4  
                           l1256 0084                             l1248 0065                             l1280 0041  
                           l1272 0029                             l1600 01C2                             l1192 0FE1  
                           l1184 000E                             l1426 04B0                             l1418 04A1  
                           l1354 039E                             l1362 03BE                             l1370 03E3  
                           l1346 0387                             l1338 0364                             l1290 02ED  
                           l1178 0FD3                             l1522 0737                             l1530 074B  
                           l1514 06EF                             l1506 0665                             l1450 04D9  
                           l1442 04C5                             l1434 04B7                             l1258 0085  
                           l1282 0048                             l1274 002D                             l1266 0019  
                           l1610 01EB                             l1602 01CB                             l1194 0FEF  
                           l1380 0400                             l1372 03E9                             l1364 03D0  
                           l1356 03B0                             l1348 038F                             l1292 02F1  
                           l1532 074F                             l1524 073B                             l1516 0717  
                           l1508 0690                             l1460 04EF                             l1452 04E1  
                           l1444 04CA                             l1436 04BC                             l1276 0031  
                           l1268 001F                             l1284 004E                             l1620 0215  
                           l1612 01F5                             l1604 01D2                             l1196 0FF3  
                           l1188 0F81                             l1390 0415                             l1382 0401  
                           l1374 03F1                             l1366 03D1                             l1358 03B4  
                           l1294 02F5                             l1550 07A0                             l1542 0770  
                           l1534 0750                             l1526 073C                             l1518 0720  
                           l1470 050B                             l1462 04F4                             l1454 04E6  
                           l1446 04CF                             l1438 04C0                             l1278 003B  
                           l1614 020B                             l1606 01DD                             l1198 0F75  
                           l1630 0236                             l1392 0419                             l1384 040A  
                           l1376 03F3                             l1368 03DF                             l1296 02F6  
                           l1288 02E8                             l1560 07D7                             l1544 0775  
                           l1552 07A6                             l1536 0754                             l1528 0745  
                           l1480 052C                             l1472 0510                             l1464 04F9  
                           l1456 04EA                             l1448 04D7                             l1616 0210  
                           l1608 01E1                             l1640 02CC                             l1632 027A  
                           l1624 021E                             l1394 042D                             l1378 03FC  
                           l1386 0410                             l1298 02FB                             l1562 07D9  
                           l1570 07EF                             l1554 07B3                             l1546 0783  
                           l1538 0768                             l1490 05B6                             l1482 0539  
                           l1474 0515                             l1466 0501                             l1458 04EE  
                           l1618 0214                             l1634 02A4                             l1626 0223  
                           l1388 0414                             l1572 07F3                             l1564 07E5  
                           l1556 07BE                             l1548 0787                             l1492 05D2  
                           l1484 0554                             l1468 0503                             l1580 0170  
                           l1636 02AC                             l1628 022B                             l1398 0435  
                           l1566 07E9                             l1558 07CD                             l1494 05DB  
                           l1486 0570                             l1478 051E                             l1590 019C  
                           l1582 0180                             l1638 02B4                             l1568 07EA  
                           l1496 05E9                             l1488 059A                             l1592 01A0  
                           l1584 0190                             l1576 0167                             l1498 0606  
                           l1594 01A9                             l1578 016C                             l1596 01B0  
                           l1588 0199                             l1598 01B4                             _ADFM 04FF  
                           _ADON 00F8                             STR_1 0806                             STR_2 0818  
                           STR_3 0823                             u1110 0F99                             u1111 0F95  
                           u2000 076F                             u1200 0124                             u2001 076E  
                           u1201 0123                             u1130 0FBF                             u2010 0775  
                           u1210 012B                             u1131 0FBE                             u2011 0774  
                           u1211 012A                             u2020 0787                             u1300 006D  
                           u1124 0F9C                             u2021 0786                             u1301 006C  
                           u1150 0FD3                             u2030 0796                             u1230 013D  
                           u2110 01AF                             u1151 0FD2                             u1231 013C  
                           u2111 01AE                             u2040 07B3                             u1240 0144  
                           u1320 007E                             u1400 004E                             u2200 0214  
                           u1160 000E                             u1145 0FC6                             u2041 07B2  
                           u1241 0143                             u1225 012D                             u1321 007D  
                           u1401 004D                             u2201 0213                             u2105 01A1  
                           u1161 000D                             u1410 02F5                             u2050 07CD  
                           u2130 01D1                             u1170 0FFF                             u1411 02F4  
                           u2051 07CC                             u2035 0791                             u1315 006E  
                           u2131 01D0                             u1171 0FFE                             u1420 02FB  
                           u2060 07E9                             u1260 0155                             u1180 00F9  
                           u1340 0092                             u1421 02FA                             u2061 07E8  
                           u2045 07AF                             u1261 0154                             u1181 00F8  
                           u1341 0091                             u1325 007A                             u2125 01C3  
                           u1430 0300                             u1270 015A                             u1190 0110  
                           u1350 001F                             u2150 01E1                             u2070 016C  
                           u1431 02FF                             u2055 07C9                             u1271 0159  
                           u1255 0147                             u1335 0086                             u1351 001E  
                           u2151 01E0                             u2071 016B                             u1600 0414  
                           u1520 03B4                             u1440 0320                             u1280 005B  
                           u2160 01E7                             u2080 0170                             u1601 0413  
                           u1521 03B3                             u1505 03A0                             u1441 031F  
                           u1281 005A                             u2161 01E6                             u2145 01D6  
                           u2081 016F                             u2217 009B                             u1610 0419  
                           u1450 0326                             u1370 0031                             u2170 01EB  
                           u2090 0190                             u1611 0418                             u1515 03A9  
                           u1451 0325                             u1195 010B                             u1371 0030  
                           u2171 01EA                             u2091 018F                             u2227 00AA  
                           u1620 042D                             u1540 03D0                             u1460 032B  
                           u1700 04C4                             u1380 003B                             u2180 0200  
                           u1621 042C                             u1541 03CF                             u1461 032A  
                           u1701 04C3                             u1381 003A                             u1365 0023  
                           u2237 00B8                             u1630 0434                             u1550 03E9  
                           u1470 0346                             u1710 04CA                             u2190 0210  
                           u1631 0433                             u1551 03E8                             u1535 03B7  
                           u1471 0345                             u1711 04C9                             u1295 005F  
                           u2191 020F                             u2247 00CE                             u1640 043A  
                           u1560 03F1                             u1480 0364                             u1720 04CF  
                           u1641 0439                             u1561 03F0                             u1545 03CC  
                           u1481 0363                             u1801 05A8                             u1721 04CE  
                           u1385 0037                             u2185 01FB                             u2257 00DC  
                           u1650 044C                             u1490 039E                             u1802 05AF  
                           u1730 04EE                             u1651 044B                             u1491 039D  
                           u1811 05C4                             u1803 05B6                             u1731 04ED  
                           u1395 0042                             u2267 00EA                             u1660 045B  
                           u1580 0400                             u1812 05CB                             u1740 04F4  
                           u1581 03FF                             u1901 06E1                             u1813 05D2  
                           u1741 04F3                             u2277 0FA1                             u1670 0478  
                           u1910 06FD                             u1902 06E8                             u1750 04F9  
                           u1671 0477                             u1575 03F5                             u1903 06EF  
                           u1831 05F8                             u1751 04F8                             u2287 0FAB  
                           u1680 0495                             u1832 05FF                             u1760 0510  
                           u1681 0494                             u1665 0456                             u1921 0709  
                           u1841 0623                             u1833 0606                             u1825 05D4  
                           u1761 050F                             u1690 04AA                             u1922 0710  
                           u1842 062A                             u1770 0515                             u1691 04A9  
                           u1675 0474                             u1595 0403                             u1923 0717  
                           u1915 06F8                             u1843 0631                             u1771 0514  
                           u1685 0491                             u1861 0657                             u1781 0562  
                           u1950 073B                             u1862 065E                             u1782 0569  
                           u1951 073A                             u1935 0719                             u1871 0682  
                           u1863 0665                             u1855 0633                             u1791 057E  
                           u1783 0570                             u1872 0689                             u1792 0585  
                           u1945 0730                             u1881 06AD                             u1873 0690  
                           u1793 058C                             u1970 074F                             u1890 06D5  
                           u1882 06B4                             u1971 074E                             u1883 06BB  
                           u1980 0754                             u1981 0753                             u1965 073E  
                           u1990 0768                             u1991 0767                             u1895 06D0  
                           _main 021E                             btemp 007E                             start 0000  
                ___fldiv@new_exp 0032                      main@voltage 0062                   clcd_write@byte 0073  
                 clcd_write@mode 0070                    ___fltol@sign1 005C                            ?_main 0070  
                __end_of___fldiv 04B7                  __end_of___flmul 07FC                  __end_of___fltol 0166  
                __end_of___lwdiv 0097                  __end_of___lwmod 0053                     ?_init_config 0070  
                          _PORTD 0008                            _TRISD 0088                            _nDONE 00FA  
                          pclath 000A                            status 0003                            wtemp0 007E  
                __initialization 07FC                     __end_of_main 02E8                           ??_main 007E  
                         _ADRESH 001E                           _ADRESL 009E                           _TRISE1 0449  
                         _TRISE2 044A                 __end_of___xxtofl 021E          _init_display_controller 0097  
                      ??___fldiv 0028                        ??___flmul 0042                        ??___fltol 0058  
                      ??___lwdiv 0074                        ??___lwmod 0074                 __end_of_init_adc 0F6A  
               __end_of_read_adc 0019                     ___xxtofl@arg 007A                     ___xxtofl@exp 0079  
                   ___xxtofl@val 0070          __end_of__initialization 07FC                       ___fltol@f1 0054  
                 __pcstackCOMMON 0070        ??_init_display_controller 0074                       _clcd_print 0FD8  
                     _clcd_putch 0F80                       _clcd_write 0F91                __end_of__Umul8_16 0FD8  
                     __pmaintext 021E                        ?___xxtofl 0070                       __stringtab 0800  
                      ?_init_adc 0070                        ?_read_adc 0070                          ___fldiv 02E8  
                        ___flmul 04B7                          ___fltol 00EE                          ___lwdiv 0053  
                        ___lwmod 0019                          __ptext1 0007                          __ptext2 0F75  
                        __ptext3 0F6A                          __ptext4 0097                          __ptext5 0F63  
                        __ptext6 0F80                          __ptext7 0FD8                          __ptext8 0F91  
                        __ptext9 0166  __end_of_init_display_controller 00EE                __end_of_init_clcd 0F75  
                     ??___xxtofl 0074             end_of_initialization 07FC                       ??_init_adc 0070  
                     ??_read_adc 0072                      ?_clcd_print 0074                      ?_clcd_putch 0077  
                    ?_clcd_write 0070                    ___xxtofl@sign 0078                      ___fldiv@grs 0034  
                    ___fldiv@rem 002D                    clcd_print@str 0075                      ___flmul@grs 0048  
            start_initialization 07FC                        __Umul8_16 0FB1                    ??_init_config 0076  
                      ___fldiv@a 0020                        ___fldiv@b 0024                        ___flmul@a 003E  
                      ___flmul@b 003A                        ___latbits 0002                    __pcstackBANK0 0020  
               ___lwdiv@dividend 0072                         ?___fldiv 0020                         ?___flmul 003A  
                       ?___fltol 0054                       ?__Umul8_16 0070                         ?___lwdiv 0070  
                       ?___lwmod 0070                        __pstrings 0800              read_adc@adc_reg_val 0072  
               ___lwdiv@quotient 0074                        _init_clcd 0F6A              __end_of_init_config 0F80  
       ?_init_display_controller 0070                     ??_clcd_print 0075                     ??_clcd_putch 0078  
                   ??_clcd_write 0071                      __stringbase 0805               __end_of_clcd_print 1000  
             __end_of_clcd_putch 0F91               __end_of_clcd_write 0FB1                       ?_init_clcd 0070  
                    ??__Umul8_16 0072               __end_of__stringtab 0806                      _init_config 0F75  
                       ___xxtofl 0166                         _main$693 005E                  ___lwdiv@divisor 0070  
                ___lwdiv@counter 0076                         __ptext10 0019                         __ptext11 0053  
                       __ptext12 00EE                         __ptext13 04B7                         __ptext14 0FB1  
                       __ptext15 02E8                         _init_adc 0F63                         _read_adc 0007  
                    ??_init_clcd 0076                 ___lwmod@dividend 0072                        stringcode 0800  
         __Umul8_16@multiplicand 0070                  ___lwmod@divisor 0070                  ___lwmod@counter 0074  
                       stringdir 0800                         stringtab 0800             __Umul8_16@multiplier 0078  
              __Umul8_16@product 0074  
